

HI-TECH Software PICC Macro Assembler V9.60PL5 build 3884 
                                                      Thu Apr 16 14:50:35 2009

HI-TECH Software Omniscient Code Generator build 3884
     1                           	processor	16F917
     2                           	fnconf	fnautoc,??,?,0
     3                           	opt	pw 79
     4                           	psect	config,global,class=CONFIG,delta=2
     5                           	psect	text149,local,class=CODE,delta=2
     6                           	psect	intrtext,global,class=CODE,delta=2
     7                           	psect	intentry,global,class=CODE,delta=2
     8                           	psect	strings,global,reloc=256,class=CODE,delt
      +                          a=2
     9                           	psect	rbss_0,global,class=BANK0,space=1,delta=
      +                          1
    10                           	psect	rbit_0,global,bit,class=BANK0,space=1,de
      +                          lta=1
    11                           	psect	common,global,class=COMMON,space=1,delta
      +                          =1
    12                           	psect	fnautoc,global,class=COMMON,space=1,delt
      +                          a=1
    13                           	dabs	1,0x67,2
    14                           	dabs	1,0x69,2
    15                           	dabs	1,0x65,1
    16                           	dabs	1,0x66,1
    17                           	dabs	1,0x6D,1
    18                           	dabs	1,0x6E,1
    19                           	dabs	1,0x6B,1
    20                           	dabs	1,0x6C,1
    21                           	dabs	1,0x6F,1
    22                           	dabs	1,0x20,1
    23                           	dabs	1,0x7D,1
    24                           	dabs	1,0x7E,2
    25  0000                     
    26  0000                     
    27  0000                     
    28  0000                     
    29  0000                     
    30  0000                     
    31  0000                     
    32  0000                     
    33  0000                     
    34  0000                     
    35  0000                     
    36  0000                     
    37  0000                     
    38  0000                     
    39  0000                     
    40  0000                     
    41  0000                     
    42  0000                     
    43  0000                     	;#
    44                           
    45                           	psect	config
    46  2007  30D4               	dw	12500	;#
    47  0000                     __tempreg	set	112
    48  0000                     __Lrbss_0	set	101
    49  0000                     __Hrbss_0	set	112
    50  0000                     
    51  0000                     
    52  0000                     __Lramdata	set	0
    53  0000                     __Hramdata	set	1
    54  0000                     
    55  0000                     
    56  0000                     
    57  0000                     
    58  0000                     
    59  0000                     
    60  0000                     
    61  0000                     
    62  0000                     
    63  0000                     
    64  0000                     
    65  0000                     
    66  0000                     
    67  0000                     
    68  0000                     
    69  0000                     
    70  0000                     
    71                           
    72                           	psect	text149
    73                           ; *************** function _clearscreen *******
      +                          ********
    74                           ; Defined at:
    75                           ;		line 619 in file "K:\PRODEV\IMAGE\Samples\Mi
      +                          crochip\Eval Boards\PICDEM LCD with PIC16F917\m
      +                          ain.c"
    76                           ; Parameters:
    77                           ;		None
    78                           ; Auto variables:
    79                           ;		None
    80                           ; Return value:
    81                           ;		type: void 
    82                           ;		size: 0
    83                           ; Registers used:
    84                           ;		None
    85                           ; Tracked objects:
    86                           ;		On entry : 300/0
    87                           ;		On exit  : 300/200
    88                           ;		Unchanged: FFFFFCFF/0
    89                           ; Data sizes:
    90                           ;		Autos:    0
    91                           ;		Params:   0
    92                           ;		Temp:     0
    93                           ;		Total:    0
    94                           ; This function calls:
    95                           ;		Nothing
    96                           ; This function is called by:
    97                           ;		_main
    98                           ; This function uses a non-reentrant model
    99                           ; 
   100                           ;main.c: 619: void clearscreen(void){
   101  001A                     _clearscreen:
   102                           ; Regs used in _clearscreen: []
   103                           ;main.c: 620: LCDDATA0 = 0;
   104  001A  1703               	bsf	3,6	;RP2=1, select bank2
   105  001B  0190               	clrf	16
   106                           ;main.c: 621: LCDDATA1 = 0;
   107  001C  0191               	clrf	17
   108                           ;main.c: 622: LCDDATA2 = 0;
   109  001D  0192               	clrf	18
   110                           ;main.c: 623: LCDDATA3 = 0;
   111  001E  0193               	clrf	19
   112                           ;main.c: 624: LCDDATA4 = 0;
   113  001F  0194               	clrf	20
   114                           ;main.c: 625: LCDDATA5 = 0;
   115  0020  0195               	clrf	21
   116                           ;main.c: 626: LCDDATA6 = 0;
   117  0021  0196               	clrf	22
   118                           ;main.c: 627: LCDDATA7 = 0;
   119  0022  0197               	clrf	23
   120                           ;main.c: 628: LCDDATA8 = 0;
   121  0023  0198               	clrf	24
   122                           ;main.c: 629: LCDDATA9 = 0;
   123  0024  0199               	clrf	25
   124                           ;main.c: 630: LCDDATA10 = 0;
   125  0025  019A               	clrf	26
   126                           ;main.c: 631: LCDDATA11 = 0;
   127  0026  019B               	clrf	27
   128                           ;main.c: 632: }
   129  0027  0008               	return
   130                           ; =============== function _clearscreen ends ==
      +                          =============
   131  0028                     __end_of_clearscreen:
   132                           ; *************** function _displayNumber *****
      +                          **********
   133                           ; Defined at:
   134                           ;		line 245 in file "K:\PRODEV\IMAGE\Samples\Mi
      +                          crochip\Eval Boards\PICDEM LCD with PIC16F917\m
      +                          ain.c"
   135                           ; Parameters:
   136                           ;		Position    	reg:   wr	type: unsigned char 
   137                           ;		Number      	offs:   0	type: unsigned char 
   138                           ; Auto variables:
   139                           ;		Position    	       	type: unsigned char 
   140                           ; Return value:
   141                           ;		type: void 
   142                           ;		size: 0
   143                           ; Registers used:
   144                           ;		wreg, fsr, status,2, status,0
   145                           ; Tracked objects:
   146                           ;		On entry : 0/0
   147                           ;		On exit  : 0/0
   148                           ;		Unchanged: FFFFFCFF/0
   149                           ; Data sizes:
   150                           ;		Autos:    1
   151                           ;		Params:   1
   152                           ;		Temp:     0
   153                           ;		Total:    2
   154                           ; This function calls:
   155                           ;		Nothing
   156                           ; This function is called by:
   157                           ;		_displayTime
   158                           ;		_display4dig
   159                           ;		_displayTemp
   160                           ; This function uses a non-reentrant model
   161                           ; 
   162                           ;main.c: 245: void displayNumber(unsigned char 
      +                          Position, unsigned char Number){
   163  0028                     _displayNumber:
   164                           ; Regs used in _displayNumber: [wreg+fsr+status
      +                          ,2+status,0]
   165                           ;_displayNumber_Position stored from wreg
   166  0028  00F4               	movwf	??_displayNumber
   167                           ;main.c: 247: switch(Position){
   168  0029  2A23               	goto	l34
   169                           ;main.c: 248: case 1:
   170  002A                     l35:
   171                           ;main.c: 249: SEG19COM0 = SEG20COM0 = SEG20COM1
      +                           = SEG20COM2 = SEG19COM1 = SEG19COM3 = SEG20COM
      +                          3 = 0;
   172  002A  1283               	bcf	3,5	;RP0=0, select bank2
   173  002B  1703               	bsf	3,6	;RP2=1, select bank2
   174  002C  121B               	bcf	27,4
   175  002D  119B               	bcf	27,3
   176  002E  1195               	bcf	21,3
   177  002F  1218               	bcf	24,4
   178  0030  1215               	bcf	21,4
   179  0031  1212               	bcf	18,4
   180  0032  1192               	bcf	18,3
   181                           ;main.c: 250: switch(Number){
   182  0033  286F               	goto	l37
   183                           ;main.c: 251: case 1:
   184  0034                     l38:
   185                           ;main.c: 252: SEG20COM0 = SEG20COM1 = 1;
   186  0034  1615               	bsf	21,4
   187  0035  1612               	bsf	18,4
   188                           ;main.c: 253: break;
   189  0036  0008               	return
   190                           ;main.c: 254: case 2:
   191  0037                     l39:
   192                           ;main.c: 255: SEG19COM0 = SEG20COM0 = SEG20COM3
      +                           = SEG19COM1 = SEG20COM2 = 1;
   193  0037  1618               	bsf	24,4
   194  0038  1595               	bsf	21,3
   195  0039  161B               	bsf	27,4
   196  003A  1612               	bsf	18,4
   197  003B  1592               	bsf	18,3
   198                           ;main.c: 256: break;
   199  003C  0008               	return
   200                           ;main.c: 257: case 3:
   201  003D                     l40:
   202                           ;main.c: 258: SEG19COM0 = SEG20COM0 = SEG20COM3
      +                           = SEG20COM1 = SEG20COM2 = 1;
   203  003D  1618               	bsf	24,4
   204  003E  1615               	bsf	21,4
   205  003F  161B               	bsf	27,4
   206  0040  1612               	bsf	18,4
   207  0041  1592               	bsf	18,3
   208                           ;main.c: 259: break;
   209  0042  0008               	return
   210                           ;main.c: 260: case 4:
   211  0043                     l41:
   212                           ;main.c: 261: SEG19COM3 = SEG20COM3 = SEG20COM0
      +                           = SEG20COM1 = 1;
   213  0043  1615               	bsf	21,4
   214  0044  1612               	bsf	18,4
   215  0045  161B               	bsf	27,4
   216  0046  159B               	bsf	27,3
   217                           ;main.c: 262: break;
   218  0047  0008               	return
   219                           ;main.c: 263: case 5:
   220  0048                     l42:
   221                           ;main.c: 264: SEG19COM0 = SEG19COM3 = SEG20COM3
      +                           = SEG20COM1 = SEG20COM2 = 1;
   222  0048  1618               	bsf	24,4
   223  0049  1615               	bsf	21,4
   224  004A  161B               	bsf	27,4
   225  004B  159B               	bsf	27,3
   226  004C  1592               	bsf	18,3
   227                           ;main.c: 265: break;
   228  004D  0008               	return
   229                           ;main.c: 266: case 6:
   230  004E                     l43:
   231                           ;main.c: 267: SEG19COM0 = SEG19COM3 = SEG19COM1
      +                           = SEG20COM2 = SEG20COM1 = SEG20COM3 = 1;
   232  004E  161B               	bsf	27,4
   233  004F  1615               	bsf	21,4
   234  0050  1618               	bsf	24,4
   235  0051  1595               	bsf	21,3
   236  0052  159B               	bsf	27,3
   237  0053  1592               	bsf	18,3
   238                           ;main.c: 268: break;
   239  0054  0008               	return
   240                           ;main.c: 269: case 7:
   241  0055                     l44:
   242                           ;main.c: 270: SEG19COM0 = SEG20COM0 = SEG20COM1
      +                           = 1;
   243  0055  1615               	bsf	21,4
   244  0056  1612               	bsf	18,4
   245  0057  1592               	bsf	18,3
   246                           ;main.c: 271: break;
   247  0058  0008               	return
   248                           ;main.c: 272: case 8:
   249  0059                     l45:
   250                           ;main.c: 273: SEG19COM0 = SEG20COM0 = SEG20COM1
      +                           = SEG20COM2 = SEG19COM1 = SEG19COM3 = SEG20COM
      +                          3 = 1;
   251  0059  161B               	bsf	27,4
   252  005A  159B               	bsf	27,3
   253  005B  1595               	bsf	21,3
   254  005C  1618               	bsf	24,4
   255  005D  1615               	bsf	21,4
   256  005E  1612               	bsf	18,4
   257  005F  1592               	bsf	18,3
   258                           ;main.c: 274: break;
   259  0060  0008               	return
   260                           ;main.c: 275: case 9:
   261  0061                     l46:
   262                           ;main.c: 276: SEG19COM0 = SEG20COM0 = SEG20COM1
      +                           = SEG20COM2 = SEG19COM3 = SEG20COM3 = 1;
   263  0061  161B               	bsf	27,4
   264  0062  159B               	bsf	27,3
   265  0063  1618               	bsf	24,4
   266  0064  1615               	bsf	21,4
   267  0065  1612               	bsf	18,4
   268  0066  1592               	bsf	18,3
   269                           ;main.c: 277: break;
   270  0067  0008               	return
   271                           ;main.c: 278: case 0:
   272  0068                     l47:
   273                           ;main.c: 279: SEG19COM0 = SEG20COM0 = SEG20COM1
      +                           = SEG20COM2 = SEG19COM1 = SEG19COM3 = 1;
   274  0068  159B               	bsf	27,3
   275  0069  1595               	bsf	21,3
   276  006A  1618               	bsf	24,4
   277  006B  1615               	bsf	21,4
   278  006C  1612               	bsf	18,4
   279  006D  1592               	bsf	18,3
   280                           ;main.c: 280: break;
   281  006E  0008               	return
   282  006F                     l37:
   283  006F  0873               	movf	?_displayNumber,w
   284  0070  3A00               	xorlw	0
   285  0071  1903               	btfsc	3,2
   286  0072  2868               	goto	l47
   287  0073  3A01               	xorlw	1
   288  0074  1903               	btfsc	3,2
   289  0075  2834               	goto	l38
   290  0076  3A03               	xorlw	3
   291  0077  1903               	btfsc	3,2
   292  0078  2837               	goto	l39
   293  0079  3A01               	xorlw	1
   294  007A  1903               	btfsc	3,2
   295  007B  283D               	goto	l40
   296  007C  3A07               	xorlw	7
   297  007D  1903               	btfsc	3,2
   298  007E  2843               	goto	l41
   299  007F  3A01               	xorlw	1
   300  0080  1903               	btfsc	3,2
   301  0081  2848               	goto	l42
   302  0082  3A03               	xorlw	3
   303  0083  1903               	btfsc	3,2
   304  0084  284E               	goto	l43
   305  0085  3A01               	xorlw	1
   306  0086  1903               	btfsc	3,2
   307  0087  2855               	goto	l44
   308  0088  3A0F               	xorlw	15
   309  0089  1903               	btfsc	3,2
   310  008A  2859               	goto	l45
   311  008B  3A01               	xorlw	1
   312  008C  1D03               	btfss	3,2
   313  008D  0008               	return
   314  008E  2861               	goto	l46
   315                           ;main.c: 282: break;
   316                           ;main.c: 283: case 2:
   317  008F                     l48:
   318                           ;main.c: 284: SEG21COM0 = SEG22COM0 = SEG22COM1
      +                           = SEG21COM2 = SEG21COM1 = SEG21COM3 = SEG22COM
      +                          3 = 0;
   319  008F  1283               	bcf	3,5	;RP0=0, select bank2
   320  0090  1703               	bsf	3,6	;RP2=1, select bank2
   321  0091  131B               	bcf	27,6
   322  0092  129B               	bcf	27,5
   323  0093  1295               	bcf	21,5
   324  0094  1298               	bcf	24,5
   325  0095  1315               	bcf	21,6
   326  0096  1312               	bcf	18,6
   327  0097  1292               	bcf	18,5
   328                           ;main.c: 285: switch(Number){
   329  0098  28D4               	goto	l50
   330                           ;main.c: 287: case 1:
   331  0099                     l51:
   332                           ;main.c: 288: SEG22COM0 = SEG22COM1 = 1;
   333  0099  1715               	bsf	21,6
   334  009A  1712               	bsf	18,6
   335                           ;main.c: 289: break;
   336  009B  0008               	return
   337                           ;main.c: 290: case 2:
   338  009C                     l52:
   339                           ;main.c: 291: SEG21COM0 = SEG22COM0 = SEG22COM3
      +                           = SEG21COM1 = SEG21COM2 = 1;
   340  009C  1698               	bsf	24,5
   341  009D  1695               	bsf	21,5
   342  009E  171B               	bsf	27,6
   343  009F  1712               	bsf	18,6
   344  00A0  1692               	bsf	18,5
   345                           ;main.c: 292: break;
   346  00A1  0008               	return
   347                           ;main.c: 293: case 3:
   348  00A2                     l53:
   349                           ;main.c: 294: SEG21COM0 = SEG22COM0 = SEG22COM3
      +                           = SEG22COM1 = SEG21COM2 = 1;
   350  00A2  1698               	bsf	24,5
   351  00A3  1715               	bsf	21,6
   352  00A4  171B               	bsf	27,6
   353  00A5  1712               	bsf	18,6
   354  00A6  1692               	bsf	18,5
   355                           ;main.c: 295: break;
   356  00A7  0008               	return
   357                           ;main.c: 296: case 4:
   358  00A8                     l54:
   359                           ;main.c: 297: SEG21COM3 = SEG22COM3 = SEG22COM0
      +                           = SEG22COM1 = 1;
   360  00A8  1715               	bsf	21,6
   361  00A9  1712               	bsf	18,6
   362  00AA  171B               	bsf	27,6
   363  00AB  169B               	bsf	27,5
   364                           ;main.c: 298: break;
   365  00AC  0008               	return
   366                           ;main.c: 299: case 5:
   367  00AD                     l55:
   368                           ;main.c: 300: SEG21COM0 = SEG21COM3 = SEG22COM3
      +                           = SEG22COM1 = SEG21COM2 = 1;
   369  00AD  1698               	bsf	24,5
   370  00AE  1715               	bsf	21,6
   371  00AF  171B               	bsf	27,6
   372  00B0  169B               	bsf	27,5
   373  00B1  1692               	bsf	18,5
   374                           ;main.c: 301: break;
   375  00B2  0008               	return
   376                           ;main.c: 302: case 6:
   377  00B3                     l56:
   378                           ;main.c: 303: SEG21COM0 = SEG21COM3 = SEG21COM1
      +                           = SEG21COM2 = SEG22COM1 = SEG22COM3 = 1;
   379  00B3  171B               	bsf	27,6
   380  00B4  1715               	bsf	21,6
   381  00B5  1698               	bsf	24,5
   382  00B6  1695               	bsf	21,5
   383  00B7  169B               	bsf	27,5
   384  00B8  1692               	bsf	18,5
   385                           ;main.c: 304: break;
   386  00B9  0008               	return
   387                           ;main.c: 305: case 7:
   388  00BA                     l57:
   389                           ;main.c: 306: SEG21COM0 = SEG22COM0 = SEG22COM1
      +                           = 1;
   390  00BA  1715               	bsf	21,6
   391  00BB  1712               	bsf	18,6
   392  00BC  1692               	bsf	18,5
   393                           ;main.c: 307: break;
   394  00BD  0008               	return
   395                           ;main.c: 308: case 8:
   396  00BE                     l58:
   397                           ;main.c: 309: SEG21COM0 = SEG22COM0 = SEG22COM1
      +                           = SEG21COM2 = SEG21COM1 = SEG21COM3 = SEG22COM
      +                          3 = 1;
   398  00BE  171B               	bsf	27,6
   399  00BF  169B               	bsf	27,5
   400  00C0  1695               	bsf	21,5
   401  00C1  1698               	bsf	24,5
   402  00C2  1715               	bsf	21,6
   403  00C3  1712               	bsf	18,6
   404  00C4  1692               	bsf	18,5
   405                           ;main.c: 310: break;
   406  00C5  0008               	return
   407                           ;main.c: 311: case 9:
   408  00C6                     l59:
   409                           ;main.c: 312: SEG21COM0 = SEG22COM0 = SEG22COM1
      +                           = SEG21COM2 = SEG21COM3 = SEG22COM3 = 1;
   410  00C6  171B               	bsf	27,6
   411  00C7  169B               	bsf	27,5
   412  00C8  1698               	bsf	24,5
   413  00C9  1715               	bsf	21,6
   414  00CA  1712               	bsf	18,6
   415  00CB  1692               	bsf	18,5
   416                           ;main.c: 313: break;
   417  00CC  0008               	return
   418                           ;main.c: 314: case 0:
   419  00CD                     l60:
   420                           ;main.c: 315: SEG21COM0 = SEG22COM0 = SEG22COM1
      +                           = SEG21COM2 = SEG21COM1 = SEG21COM3 = 1;
   421  00CD  169B               	bsf	27,5
   422  00CE  1695               	bsf	21,5
   423  00CF  1698               	bsf	24,5
   424  00D0  1715               	bsf	21,6
   425  00D1  1712               	bsf	18,6
   426  00D2  1692               	bsf	18,5
   427                           ;main.c: 316: break;
   428  00D3  0008               	return
   429  00D4                     l50:
   430  00D4  0873               	movf	?_displayNumber,w
   431  00D5  3A00               	xorlw	0
   432  00D6  1903               	btfsc	3,2
   433  00D7  28CD               	goto	l60
   434  00D8  3A01               	xorlw	1
   435  00D9  1903               	btfsc	3,2
   436  00DA  2899               	goto	l51
   437  00DB  3A03               	xorlw	3
   438  00DC  1903               	btfsc	3,2
   439  00DD  289C               	goto	l52
   440  00DE  3A01               	xorlw	1
   441  00DF  1903               	btfsc	3,2
   442  00E0  28A2               	goto	l53
   443  00E1  3A07               	xorlw	7
   444  00E2  1903               	btfsc	3,2
   445  00E3  28A8               	goto	l54
   446  00E4  3A01               	xorlw	1
   447  00E5  1903               	btfsc	3,2
   448  00E6  28AD               	goto	l55
   449  00E7  3A03               	xorlw	3
   450  00E8  1903               	btfsc	3,2
   451  00E9  28B3               	goto	l56
   452  00EA  3A01               	xorlw	1
   453  00EB  1903               	btfsc	3,2
   454  00EC  28BA               	goto	l57
   455  00ED  3A0F               	xorlw	15
   456  00EE  1903               	btfsc	3,2
   457  00EF  28BE               	goto	l58
   458  00F0  3A01               	xorlw	1
   459  00F1  1D03               	btfss	3,2
   460  00F2  0008               	return
   461  00F3  28C6               	goto	l59
   462                           ;main.c: 318: break;
   463                           ;main.c: 319: case 3:
   464  00F4                     l61:
   465                           ;main.c: 320: SEG23COM0 = SEG6COM0 = SEG6COM1 =
      +                           SEG23COM2 = SEG23COM1 = SEG23COM3 = SEG6COM3 =
      +                           0;
   466  00F4  1283               	bcf	3,5	;RP0=0, select bank2
   467  00F5  1703               	bsf	3,6	;RP2=1, select bank2
   468  00F6  1319               	bcf	25,6
   469  00F7  139B               	bcf	27,7
   470  00F8  1395               	bcf	21,7
   471  00F9  1398               	bcf	24,7
   472  00FA  1313               	bcf	19,6
   473  00FB  1310               	bcf	16,6
   474  00FC  1392               	bcf	18,7
   475                           ;main.c: 321: switch(Number){
   476  00FD  2939               	goto	l63
   477                           ;main.c: 322: case 1:
   478  00FE                     l64:
   479                           ;main.c: 323: SEG6COM0 = SEG6COM1 = 1;
   480  00FE  1713               	bsf	19,6
   481  00FF  1710               	bsf	16,6
   482                           ;main.c: 324: break;
   483  0100  0008               	return
   484                           ;main.c: 325: case 2:
   485  0101                     l65:
   486                           ;main.c: 326: SEG23COM0 = SEG6COM0 = SEG6COM3 =
      +                           SEG23COM1 = SEG23COM2 = 1;
   487  0101  1798               	bsf	24,7
   488  0102  1795               	bsf	21,7
   489  0103  1719               	bsf	25,6
   490  0104  1710               	bsf	16,6
   491  0105  1792               	bsf	18,7
   492                           ;main.c: 327: break;
   493  0106  0008               	return
   494                           ;main.c: 328: case 3:
   495  0107                     l66:
   496                           ;main.c: 329: SEG23COM0 = SEG6COM0 = SEG6COM3 =
      +                           SEG6COM1 = SEG23COM2 = 1;
   497  0107  1798               	bsf	24,7
   498  0108  1713               	bsf	19,6
   499  0109  1719               	bsf	25,6
   500  010A  1710               	bsf	16,6
   501  010B  1792               	bsf	18,7
   502                           ;main.c: 330: break;
   503  010C  0008               	return
   504                           ;main.c: 331: case 4:
   505  010D                     l67:
   506                           ;main.c: 332: SEG23COM3 = SEG6COM3 = SEG6COM0 =
      +                           SEG6COM1 = 1;
   507  010D  1713               	bsf	19,6
   508  010E  1710               	bsf	16,6
   509  010F  1719               	bsf	25,6
   510  0110  179B               	bsf	27,7
   511                           ;main.c: 333: break;
   512  0111  0008               	return
   513                           ;main.c: 334: case 5:
   514  0112                     l68:
   515                           ;main.c: 335: SEG23COM0 = SEG23COM3 = SEG6COM3 
      +                          = SEG6COM1 = SEG23COM2 = 1;
   516  0112  1798               	bsf	24,7
   517  0113  1713               	bsf	19,6
   518  0114  1719               	bsf	25,6
   519  0115  179B               	bsf	27,7
   520  0116  1792               	bsf	18,7
   521                           ;main.c: 336: break;
   522  0117  0008               	return
   523                           ;main.c: 337: case 6:
   524  0118                     l69:
   525                           ;main.c: 338: SEG23COM0 = SEG23COM3 = SEG23COM1
      +                           = SEG23COM2 = SEG6COM1 = SEG6COM3 = 1;
   526  0118  1719               	bsf	25,6
   527  0119  1713               	bsf	19,6
   528  011A  1798               	bsf	24,7
   529  011B  1795               	bsf	21,7
   530  011C  179B               	bsf	27,7
   531  011D  1792               	bsf	18,7
   532                           ;main.c: 339: break;
   533  011E  0008               	return
   534                           ;main.c: 340: case 7:
   535  011F                     l70:
   536                           ;main.c: 341: SEG23COM0 = SEG6COM0 = SEG6COM1 =
      +                           1;
   537  011F  1713               	bsf	19,6
   538  0120  1710               	bsf	16,6
   539  0121  1792               	bsf	18,7
   540                           ;main.c: 342: break;
   541  0122  0008               	return
   542                           ;main.c: 343: case 8:
   543  0123                     l71:
   544                           ;main.c: 344: SEG23COM0 = SEG6COM0 = SEG6COM1 =
      +                           SEG23COM2 = SEG23COM1 = SEG23COM3 = SEG6COM3 =
      +                           1;
   545  0123  1719               	bsf	25,6
   546  0124  179B               	bsf	27,7
   547  0125  1795               	bsf	21,7
   548  0126  1798               	bsf	24,7
   549  0127  1713               	bsf	19,6
   550  0128  1710               	bsf	16,6
   551  0129  1792               	bsf	18,7
   552                           ;main.c: 345: break;
   553  012A  0008               	return
   554                           ;main.c: 346: case 9:
   555  012B                     l72:
   556                           ;main.c: 347: SEG23COM0 = SEG6COM0 = SEG6COM1 =
      +                           SEG23COM2 = SEG23COM3 = SEG6COM3 = 1;
   557  012B  1719               	bsf	25,6
   558  012C  179B               	bsf	27,7
   559  012D  1798               	bsf	24,7
   560  012E  1713               	bsf	19,6
   561  012F  1710               	bsf	16,6
   562  0130  1792               	bsf	18,7
   563                           ;main.c: 348: break;
   564  0131  0008               	return
   565                           ;main.c: 349: case 0:
   566  0132                     l73:
   567                           ;main.c: 350: SEG23COM0 = SEG6COM0 = SEG6COM1 =
      +                           SEG23COM2 = SEG23COM1 = SEG23COM3 = 1;
   568  0132  179B               	bsf	27,7
   569  0133  1795               	bsf	21,7
   570  0134  1798               	bsf	24,7
   571  0135  1713               	bsf	19,6
   572  0136  1710               	bsf	16,6
   573  0137  1792               	bsf	18,7
   574                           ;main.c: 351: break;
   575  0138  0008               	return
   576  0139                     l63:
   577  0139  0873               	movf	?_displayNumber,w
   578  013A  3A00               	xorlw	0
   579  013B  1903               	btfsc	3,2
   580  013C  2932               	goto	l73
   581  013D  3A01               	xorlw	1
   582  013E  1903               	btfsc	3,2
   583  013F  28FE               	goto	l64
   584  0140  3A03               	xorlw	3
   585  0141  1903               	btfsc	3,2
   586  0142  2901               	goto	l65
   587  0143  3A01               	xorlw	1
   588  0144  1903               	btfsc	3,2
   589  0145  2907               	goto	l66
   590  0146  3A07               	xorlw	7
   591  0147  1903               	btfsc	3,2
   592  0148  290D               	goto	l67
   593  0149  3A01               	xorlw	1
   594  014A  1903               	btfsc	3,2
   595  014B  2912               	goto	l68
   596  014C  3A03               	xorlw	3
   597  014D  1903               	btfsc	3,2
   598  014E  2918               	goto	l69
   599  014F  3A01               	xorlw	1
   600  0150  1903               	btfsc	3,2
   601  0151  291F               	goto	l70
   602  0152  3A0F               	xorlw	15
   603  0153  1903               	btfsc	3,2
   604  0154  2923               	goto	l71
   605  0155  3A01               	xorlw	1
   606  0156  1D03               	btfss	3,2
   607  0157  0008               	return
   608  0158  292B               	goto	l72
   609                           ;main.c: 353: break;
   610                           ;main.c: 354: case 4:
   611  0159                     l74:
   612                           ;main.c: 355: SEG5COM0 = SEG4COM0 = SEG4COM1 = 
      +                          SEG5COM2 = SEG5COM1 = SEG5COM3 = SEG4COM3 = 0;
   613  0159  1283               	bcf	3,5	;RP0=0, select bank2
   614  015A  1703               	bsf	3,6	;RP2=1, select bank2
   615  015B  1219               	bcf	25,4
   616  015C  1299               	bcf	25,5
   617  015D  1293               	bcf	19,5
   618  015E  1296               	bcf	22,5
   619  015F  1213               	bcf	19,4
   620  0160  1210               	bcf	16,4
   621  0161  1290               	bcf	16,5
   622                           ;main.c: 356: switch(Number){
   623  0162  299E               	goto	l76
   624                           ;main.c: 357: case 1:
   625  0163                     l77:
   626                           ;main.c: 358: SEG4COM0 = SEG4COM1 = 1;
   627  0163  1613               	bsf	19,4
   628  0164  1610               	bsf	16,4
   629                           ;main.c: 359: break;
   630  0165  0008               	return
   631                           ;main.c: 360: case 2:
   632  0166                     l78:
   633                           ;main.c: 361: SEG5COM0 = SEG4COM0 = SEG4COM3 = 
      +                          SEG5COM1 = SEG5COM2 = 1;
   634  0166  1696               	bsf	22,5
   635  0167  1693               	bsf	19,5
   636  0168  1619               	bsf	25,4
   637  0169  1610               	bsf	16,4
   638  016A  1690               	bsf	16,5
   639                           ;main.c: 362: break;
   640  016B  0008               	return
   641                           ;main.c: 363: case 3:
   642  016C                     l79:
   643                           ;main.c: 364: SEG5COM0 = SEG4COM0 = SEG4COM3 = 
      +                          SEG4COM1 = SEG5COM2 = 1;
   644  016C  1696               	bsf	22,5
   645  016D  1613               	bsf	19,4
   646  016E  1619               	bsf	25,4
   647  016F  1610               	bsf	16,4
   648  0170  1690               	bsf	16,5
   649                           ;main.c: 365: break;
   650  0171  0008               	return
   651                           ;main.c: 366: case 4:
   652  0172                     l80:
   653                           ;main.c: 367: SEG5COM3 = SEG4COM3 = SEG4COM0 = 
      +                          SEG4COM1 = 1;
   654  0172  1613               	bsf	19,4
   655  0173  1610               	bsf	16,4
   656  0174  1619               	bsf	25,4
   657  0175  1699               	bsf	25,5
   658                           ;main.c: 368: break;
   659  0176  0008               	return
   660                           ;main.c: 369: case 5:
   661  0177                     l81:
   662                           ;main.c: 370: SEG5COM0 = SEG5COM3 = SEG4COM3 = 
      +                          SEG4COM1 = SEG5COM2 = 1;
   663  0177  1696               	bsf	22,5
   664  0178  1613               	bsf	19,4
   665  0179  1619               	bsf	25,4
   666  017A  1699               	bsf	25,5
   667  017B  1690               	bsf	16,5
   668                           ;main.c: 371: break;
   669  017C  0008               	return
   670                           ;main.c: 372: case 6:
   671  017D                     l82:
   672                           ;main.c: 373: SEG5COM0 = SEG5COM3 = SEG5COM1 = 
      +                          SEG5COM2 = SEG4COM1 = SEG4COM3 = 1;
   673  017D  1619               	bsf	25,4
   674  017E  1613               	bsf	19,4
   675  017F  1696               	bsf	22,5
   676  0180  1693               	bsf	19,5
   677  0181  1699               	bsf	25,5
   678  0182  1690               	bsf	16,5
   679                           ;main.c: 374: break;
   680  0183  0008               	return
   681                           ;main.c: 375: case 7:
   682  0184                     l83:
   683                           ;main.c: 376: SEG5COM0 = SEG4COM0 = SEG4COM1 = 
      +                          1;
   684  0184  1613               	bsf	19,4
   685  0185  1610               	bsf	16,4
   686  0186  1690               	bsf	16,5
   687                           ;main.c: 377: break;
   688  0187  0008               	return
   689                           ;main.c: 378: case 8:
   690  0188                     l84:
   691                           ;main.c: 379: SEG5COM0 = SEG4COM0 = SEG4COM1 = 
      +                          SEG5COM2 = SEG5COM1 = SEG5COM3 = SEG4COM3 = 1;
   692  0188  1619               	bsf	25,4
   693  0189  1699               	bsf	25,5
   694  018A  1693               	bsf	19,5
   695  018B  1696               	bsf	22,5
   696  018C  1613               	bsf	19,4
   697  018D  1610               	bsf	16,4
   698  018E  1690               	bsf	16,5
   699                           ;main.c: 380: break;
   700  018F  0008               	return
   701                           ;main.c: 381: case 9:
   702  0190                     l85:
   703                           ;main.c: 382: SEG5COM0 = SEG4COM0 = SEG4COM1 = 
      +                          SEG5COM2 = SEG5COM3 = SEG4COM3 = 1;
   704  0190  1619               	bsf	25,4
   705  0191  1699               	bsf	25,5
   706  0192  1696               	bsf	22,5
   707  0193  1613               	bsf	19,4
   708  0194  1610               	bsf	16,4
   709  0195  1690               	bsf	16,5
   710                           ;main.c: 383: break;
   711  0196  0008               	return
   712                           ;main.c: 384: case 0:
   713  0197                     l86:
   714                           ;main.c: 385: SEG5COM0 = SEG4COM0 = SEG4COM1 = 
      +                          SEG5COM2 = SEG5COM1 = SEG5COM3 = 1;
   715  0197  1699               	bsf	25,5
   716  0198  1693               	bsf	19,5
   717  0199  1696               	bsf	22,5
   718  019A  1613               	bsf	19,4
   719  019B  1610               	bsf	16,4
   720  019C  1690               	bsf	16,5
   721                           ;main.c: 386: break;
   722  019D  0008               	return
   723  019E                     l76:
   724  019E  0873               	movf	?_displayNumber,w
   725  019F  3A00               	xorlw	0
   726  01A0  1903               	btfsc	3,2
   727  01A1  2997               	goto	l86
   728  01A2  3A01               	xorlw	1
   729  01A3  1903               	btfsc	3,2
   730  01A4  2963               	goto	l77
   731  01A5  3A03               	xorlw	3
   732  01A6  1903               	btfsc	3,2
   733  01A7  2966               	goto	l78
   734  01A8  3A01               	xorlw	1
   735  01A9  1903               	btfsc	3,2
   736  01AA  296C               	goto	l79
   737  01AB  3A07               	xorlw	7
   738  01AC  1903               	btfsc	3,2
   739  01AD  2972               	goto	l80
   740  01AE  3A01               	xorlw	1
   741  01AF  1903               	btfsc	3,2
   742  01B0  2977               	goto	l81
   743  01B1  3A03               	xorlw	3
   744  01B2  1903               	btfsc	3,2
   745  01B3  297D               	goto	l82
   746  01B4  3A01               	xorlw	1
   747  01B5  1903               	btfsc	3,2
   748  01B6  2984               	goto	l83
   749  01B7  3A0F               	xorlw	15
   750  01B8  1903               	btfsc	3,2
   751  01B9  2988               	goto	l84
   752  01BA  3A01               	xorlw	1
   753  01BB  1D03               	btfss	3,2
   754  01BC  0008               	return
   755  01BD  2990               	goto	l85
   756                           ;main.c: 388: break;
   757                           ;main.c: 389: case 5:
   758  01BE                     l87:
   759                           ;main.c: 390: SEG3COM0 = SEG2COM0 = SEG2COM1 = 
      +                          SEG3COM2 = SEG3COM1 = SEG3COM3 = SEG2COM3 = 0;
   760  01BE  1283               	bcf	3,5	;RP0=0, select bank2
   761  01BF  1703               	bsf	3,6	;RP2=1, select bank2
   762  01C0  1119               	bcf	25,2
   763  01C1  1199               	bcf	25,3
   764  01C2  1193               	bcf	19,3
   765  01C3  1196               	bcf	22,3
   766  01C4  1113               	bcf	19,2
   767  01C5  1110               	bcf	16,2
   768  01C6  1190               	bcf	16,3
   769                           ;main.c: 391: switch(Number){
   770  01C7  2A03               	goto	l89
   771                           ;main.c: 393: case 1:
   772  01C8                     l90:
   773                           ;main.c: 394: SEG2COM0 = SEG2COM1 = 1;
   774  01C8  1513               	bsf	19,2
   775  01C9  1510               	bsf	16,2
   776                           ;main.c: 395: break;
   777  01CA  0008               	return
   778                           ;main.c: 396: case 2:
   779  01CB                     l91:
   780                           ;main.c: 397: SEG3COM0 = SEG2COM0 = SEG2COM3 = 
      +                          SEG3COM1 = SEG3COM2 = 1;
   781  01CB  1596               	bsf	22,3
   782  01CC  1593               	bsf	19,3
   783  01CD  1519               	bsf	25,2
   784  01CE  1510               	bsf	16,2
   785  01CF  1590               	bsf	16,3
   786                           ;main.c: 398: break;
   787  01D0  0008               	return
   788                           ;main.c: 399: case 3:
   789  01D1                     l92:
   790                           ;main.c: 400: SEG3COM0 = SEG2COM0 = SEG2COM3 = 
      +                          SEG2COM1 = SEG3COM2 = 1;
   791  01D1  1596               	bsf	22,3
   792  01D2  1513               	bsf	19,2
   793  01D3  1519               	bsf	25,2
   794  01D4  1510               	bsf	16,2
   795  01D5  1590               	bsf	16,3
   796                           ;main.c: 401: break;
   797  01D6  0008               	return
   798                           ;main.c: 402: case 4:
   799  01D7                     l93:
   800                           ;main.c: 403: SEG3COM3 = SEG2COM3 = SEG2COM0 = 
      +                          SEG2COM1 = 1;
   801  01D7  1513               	bsf	19,2
   802  01D8  1510               	bsf	16,2
   803  01D9  1519               	bsf	25,2
   804  01DA  1599               	bsf	25,3
   805                           ;main.c: 404: break;
   806  01DB  0008               	return
   807                           ;main.c: 405: case 5:
   808  01DC                     l94:
   809                           ;main.c: 406: SEG3COM0 = SEG3COM3 = SEG2COM3 = 
      +                          SEG2COM1 = SEG3COM2 = 1;
   810  01DC  1596               	bsf	22,3
   811  01DD  1513               	bsf	19,2
   812  01DE  1519               	bsf	25,2
   813  01DF  1599               	bsf	25,3
   814  01E0  1590               	bsf	16,3
   815                           ;main.c: 407: break;
   816  01E1  0008               	return
   817                           ;main.c: 408: case 6:
   818  01E2                     l95:
   819                           ;main.c: 409: SEG3COM0 = SEG3COM3 = SEG3COM1 = 
      +                          SEG3COM2 = SEG2COM1 = SEG2COM3 = 1;
   820  01E2  1519               	bsf	25,2
   821  01E3  1513               	bsf	19,2
   822  01E4  1596               	bsf	22,3
   823  01E5  1593               	bsf	19,3
   824  01E6  1599               	bsf	25,3
   825  01E7  1590               	bsf	16,3
   826                           ;main.c: 410: break;
   827  01E8  0008               	return
   828                           ;main.c: 411: case 7:
   829  01E9                     l96:
   830                           ;main.c: 412: SEG3COM0 = SEG2COM0 = SEG2COM1 = 
      +                          1;
   831  01E9  1513               	bsf	19,2
   832  01EA  1510               	bsf	16,2
   833  01EB  1590               	bsf	16,3
   834                           ;main.c: 413: break;
   835  01EC  0008               	return
   836                           ;main.c: 414: case 8:
   837  01ED                     l97:
   838                           ;main.c: 415: SEG3COM0 = SEG2COM0 = SEG2COM1 = 
      +                          SEG3COM2 = SEG3COM1 = SEG3COM3 = SEG2COM3 = 1;
   839  01ED  1519               	bsf	25,2
   840  01EE  1599               	bsf	25,3
   841  01EF  1593               	bsf	19,3
   842  01F0  1596               	bsf	22,3
   843  01F1  1513               	bsf	19,2
   844  01F2  1510               	bsf	16,2
   845  01F3  1590               	bsf	16,3
   846                           ;main.c: 416: break;
   847  01F4  0008               	return
   848                           ;main.c: 417: case 9:
   849  01F5                     l98:
   850                           ;main.c: 418: SEG3COM0 = SEG2COM0 = SEG2COM1 = 
      +                          SEG3COM2 = SEG3COM3 = SEG2COM3 = 1;
   851  01F5  1519               	bsf	25,2
   852  01F6  1599               	bsf	25,3
   853  01F7  1596               	bsf	22,3
   854  01F8  1513               	bsf	19,2
   855  01F9  1510               	bsf	16,2
   856  01FA  1590               	bsf	16,3
   857                           ;main.c: 419: break;
   858  01FB  0008               	return
   859                           ;main.c: 420: case 0:
   860  01FC                     l99:
   861                           ;main.c: 421: SEG3COM0 = SEG2COM0 = SEG2COM1 = 
      +                          SEG3COM2 = SEG3COM1 = SEG3COM3 = 1;
   862  01FC  1599               	bsf	25,3
   863  01FD  1593               	bsf	19,3
   864  01FE  1596               	bsf	22,3
   865  01FF  1513               	bsf	19,2
   866  0200  1510               	bsf	16,2
   867  0201  1590               	bsf	16,3
   868                           ;main.c: 422: break;
   869  0202  0008               	return
   870  0203                     l89:
   871  0203  0873               	movf	?_displayNumber,w
   872  0204  3A00               	xorlw	0
   873  0205  1903               	btfsc	3,2
   874  0206  29FC               	goto	l99
   875  0207  3A01               	xorlw	1
   876  0208  1903               	btfsc	3,2
   877  0209  29C8               	goto	l90
   878  020A  3A03               	xorlw	3
   879  020B  1903               	btfsc	3,2
   880  020C  29CB               	goto	l91
   881  020D  3A01               	xorlw	1
   882  020E  1903               	btfsc	3,2
   883  020F  29D1               	goto	l92
   884  0210  3A07               	xorlw	7
   885  0211  1903               	btfsc	3,2
   886  0212  29D7               	goto	l93
   887  0213  3A01               	xorlw	1
   888  0214  1903               	btfsc	3,2
   889  0215  29DC               	goto	l94
   890  0216  3A03               	xorlw	3
   891  0217  1903               	btfsc	3,2
   892  0218  29E2               	goto	l95
   893  0219  3A01               	xorlw	1
   894  021A  1903               	btfsc	3,2
   895  021B  29E9               	goto	l96
   896  021C  3A0F               	xorlw	15
   897  021D  1903               	btfsc	3,2
   898  021E  29ED               	goto	l97
   899  021F  3A01               	xorlw	1
   900  0220  1D03               	btfss	3,2
   901  0221  0008               	return
   902  0222  29F5               	goto	l98
   903                           ;main.c: 424: break;
   904  0223                     l34:
   905  0223  0874               	movf	??_displayNumber,w
   906  0224  3A01               	xorlw	1
   907  0225  1903               	btfsc	3,2
   908  0226  282A               	goto	l35
   909  0227  3A03               	xorlw	3
   910  0228  1903               	btfsc	3,2
   911  0229  288F               	goto	l48
   912  022A  3A01               	xorlw	1
   913  022B  1903               	btfsc	3,2
   914  022C  28F4               	goto	l61
   915  022D  3A07               	xorlw	7
   916  022E  1903               	btfsc	3,2
   917  022F  2959               	goto	l74
   918  0230  3A01               	xorlw	1
   919  0231  1D03               	btfss	3,2
   920  0232  0008               	return
   921  0233  29BE               	goto	l87
   922                           ;main.c: 426: }
   923                           ; =============== function _displayNumber ends 
      +                          ===============
   924  0234                     __end_of_displayNumber:
   925                           ; *************** function _numberBreak *******
      +                          ********
   926                           ; Defined at:
   927                           ;		line 428 in file "K:\PRODEV\IMAGE\Samples\Mi
      +                          crochip\Eval Boards\PICDEM LCD with PIC16F917\m
      +                          ain.c"
   928                           ; Parameters:
   929                           ;		number      	reg:   wr	type: unsigned char 
   930                           ; Auto variables:
   931                           ;		number      	       	type: unsigned char 
   932                           ; Return value:
   933                           ;		type: void 
   934                           ;		size: 0
   935                           ; Registers used:
   936                           ;		wreg, status,2, status,0
   937                           ; Tracked objects:
   938                           ;		On entry : 300/0
   939                           ;		On exit  : 300/0
   940                           ;		Unchanged: FFFFFCFF/0
   941                           ; Data sizes:
   942                           ;		Autos:    1
   943                           ;		Params:   0
   944                           ;		Temp:     0
   945                           ;		Total:    1
   946                           ; This function calls:
   947                           ;		Nothing
   948                           ; This function is called by:
   949                           ;		_displayTime
   950                           ; This function uses a non-reentrant model
   951                           ; 
   952                           ;main.c: 428: void numberBreak(unsigned char nu
      +                          mber){
   953  0234                     _numberBreak:
   954                           ; Regs used in _numberBreak: [wreg+status,2+sta
      +                          tus,0]
   955                           ;_numberBreak_number stored from wreg
   956  0234  00F0               	movwf	??_numberBreak
   957                           ;main.c: 429: tens = 0;
   958  0235  01EC               	clrf	108
   959                           ;main.c: 430: ones = 0;
   960  0236  01EE               	clrf	110
   961                           ;main.c: 431: while(number >= 10){
   962  0237  2A3B               	goto	l101
   963  0238                     l102:
   964                           ;main.c: 432: number = number - 10;
   965  0238  30F6               	movlw	246
   966  0239  07F0               	addwf	??_numberBreak,f
   967                           ;main.c: 433: tens ++;
   968  023A  0AEC               	incf	108,f
   969  023B                     l101:
   970  023B  300A               	movlw	10
   971  023C  0270               	subwf	??_numberBreak,w
   972  023D  1803               	btfsc	3,0
   973  023E  2A38               	goto	l102
   974                           ;main.c: 434: }
   975                           ;main.c: 436: ones=number;
   976  023F  0870               	movf	??_numberBreak,w
   977  0240  00EE               	movwf	110
   978                           ;main.c: 438: }
   979  0241  0008               	return
   980                           ; =============== function _numberBreak ends ==
      +                          =============
   981  0242                     __end_of_numberBreak:
   982                           ; *************** function _displayTime *******
      +                          ********
   983                           ; Defined at:
   984                           ;		line 528 in file "K:\PRODEV\IMAGE\Samples\Mi
      +                          crochip\Eval Boards\PICDEM LCD with PIC16F917\m
      +                          ain.c"
   985                           ; Parameters:
   986                           ;		None
   987                           ; Auto variables:
   988                           ;		None
   989                           ; Return value:
   990                           ;		type: void 
   991                           ;		size: 0
   992                           ; Registers used:
   993                           ;		wreg, fsr, status,2, status,0, pclath, cstac
      +                          k
   994                           ; Tracked objects:
   995                           ;		On entry : 300/0
   996                           ;		On exit  : 0/0
   997                           ;		Unchanged: FFFFFCFF/0
   998                           ; Data sizes:
   999                           ;		Autos:    0
  1000                           ;		Params:   0
  1001                           ;		Temp:     0
  1002                           ;		Total:    0
  1003                           ; This function calls:
  1004                           ;		_numberBreak
  1005                           ;		_displayNumber
  1006                           ; This function is called by:
  1007                           ;		_main
  1008                           ; This function uses a non-reentrant model
  1009                           ; 
  1010                           ;main.c: 528: void displayTime(){
  1011  0242                     _displayTime:
  1012                           ; Regs used in _displayTime: [wreg+fsr+status,2
      +                          +status,0+pclath+cstack]
  1013                           ;main.c: 530: numberBreak(hours);
  1014  0242  087D               	movf	125,w
  1015  0243  2234               	fcall	_numberBreak
  1016                           ;main.c: 531: if (hours > 9) {
  1017  0244  300A               	movlw	10
  1018  0245  027D               	subwf	125,w
  1019  0246  1C03               	btfss	3,0
  1020  0247  2A4A               	goto	l129
  1021                           ;main.c: 532: displayNumber(1,tens);
  1022  0248  086C               	movf	108,w
  1023  0249  2A4B               	goto	L1
  1024                           ;main.c: 533: displayNumber(2,ones);
  1025                           ;main.c: 534: }
  1026  024A                     l129:
  1027                           ;main.c: 535: else{
  1028                           ;main.c: 536: displayNumber(1,10);
  1029  024A  300A               	movlw	10
  1030  024B                     L1:
  1031  024B  00F3               	movwf	?_displayNumber
  1032  024C  3001               	movlw	1
  1033  024D  2028               	fcall	_displayNumber
  1034                           ;main.c: 537: displayNumber(2,ones);
  1035  024E  1283               	bcf	3,5	;RP0=0, select bank0
  1036  024F  1303               	bcf	3,6	;RP2=0, select bank0
  1037  0250  086E               	movf	110,w
  1038  0251  00F3               	movwf	?_displayNumber
  1039  0252  3002               	movlw	2
  1040  0253  2028               	fcall	_displayNumber
  1041                           ;main.c: 538: }
  1042                           ;main.c: 539: numberBreak(minutes);
  1043  0254  1283               	bcf	3,5	;RP0=0, select bank0
  1044  0255  1303               	bcf	3,6	;RP2=0, select bank0
  1045  0256  086D               	movf	109,w
  1046  0257  2234               	fcall	_numberBreak
  1047                           ;main.c: 540: displayNumber(3,tens);
  1048  0258  086C               	movf	108,w
  1049  0259  00F3               	movwf	?_displayNumber
  1050  025A  3003               	movlw	3
  1051  025B  2028               	fcall	_displayNumber
  1052                           ;main.c: 541: displayNumber(4,ones);
  1053  025C  1283               	bcf	3,5	;RP0=0, select bank0
  1054  025D  1303               	bcf	3,6	;RP2=0, select bank0
  1055  025E  086E               	movf	110,w
  1056  025F  00F3               	movwf	?_displayNumber
  1057  0260  3004               	movlw	4
  1058  0261  2828               	ljmp	_displayNumber
  1059                           ;main.c: 543: }
  1060                           ; =============== function _displayTime ends ==
      +                          =============
  1061  0262                     __end_of_displayTime:
  1062                           ; *************** function _init **************
      +                          *
  1063                           ; Defined at:
  1064                           ;		line 104 in file "K:\PRODEV\IMAGE\Samples\Mi
      +                          crochip\Eval Boards\PICDEM LCD with PIC16F917\m
      +                          ain.c"
  1065                           ; Parameters:
  1066                           ;		None
  1067                           ; Auto variables:
  1068                           ;		None
  1069                           ; Return value:
  1070                           ;		type: void 
  1071                           ;		size: 0
  1072                           ; Registers used:
  1073                           ;		wreg
  1074                           ; Tracked objects:
  1075                           ;		On entry : BFF/0
  1076                           ;		On exit  : BFF/0
  1077                           ;		Unchanged: FFFFFCFF/0
  1078                           ; Data sizes:
  1079                           ;		Autos:    0
  1080                           ;		Params:   0
  1081                           ;		Temp:     0
  1082                           ;		Total:    0
  1083                           ; This function calls:
  1084                           ;		Nothing
  1085                           ; This function is called by:
  1086                           ;		_main
  1087                           ; This function uses a non-reentrant model
  1088                           ; 
  1089                           ;main.c: 104: void init(){
  1090  0262                     _init:
  1091                           ; Regs used in _init: [wreg]
  1092                           ;main.c: 109: LCDPS = 0b00000000;
  1093  0262  1703               	bsf	3,6	;RP2=1, select bank2
  1094  0263  0188               	clrf	8	;volatile
  1095                           ;main.c: 110: LCDSE0 = 0b01111110;
  1096  0264  307E               	movlw	126
  1097  0265  009C               	movwf	28
  1098                           ;main.c: 111: LCDSE1 = 0b10001100;
  1099  0266  308C               	movlw	140
  1100  0267  009D               	movwf	29
  1101                           ;main.c: 112: LCDSE2 = 0b11111111;
  1102  0268  019E               	clrf	30
  1103  0269  039E               	decf	30,f
  1104                           ;main.c: 113: LCDCON = 0b11010011;
  1105  026A  30D3               	movlw	211
  1106  026B  0087               	movwf	7	;volatile
  1107                           ;main.c: 115: LCDDATA0 = 0;
  1108  026C  0190               	clrf	16
  1109                           ;main.c: 116: LCDDATA1 = 0;
  1110  026D  0191               	clrf	17
  1111                           ;main.c: 117: LCDDATA2 = 0;
  1112  026E  0192               	clrf	18
  1113                           ;main.c: 118: LCDDATA3 = 0;
  1114  026F  0193               	clrf	19
  1115                           ;main.c: 119: LCDDATA4 = 0;
  1116  0270  0194               	clrf	20
  1117                           ;main.c: 120: LCDDATA5 = 0;
  1118  0271  0195               	clrf	21
  1119                           ;main.c: 121: LCDDATA6 = 0;
  1120  0272  0196               	clrf	22
  1121                           ;main.c: 122: LCDDATA7 = 0;
  1122  0273  0197               	clrf	23
  1123                           ;main.c: 123: LCDDATA8 = 0;
  1124  0274  0198               	clrf	24
  1125                           ;main.c: 124: LCDDATA9 = 0;
  1126  0275  0199               	clrf	25
  1127                           ;main.c: 125: LCDDATA10 = 0;
  1128  0276  019A               	clrf	26
  1129                           ;main.c: 126: LCDDATA11 = 0;
  1130  0277  019B               	clrf	27
  1131                           ;main.c: 129: T1CON = 0b00001111;
  1132  0278  300F               	movlw	15
  1133  0279  1303               	bcf	3,6	;RP2=0, select bank0
  1134  027A  0090               	movwf	16	;volatile
  1135                           ;main.c: 132: ANS1 = ANS0 = 1;
  1136  027B  1683               	bsf	3,5	;RP0=1, select bank1
  1137  027C  1411               	bsf	17,0
  1138  027D  1491               	bsf	17,1
  1139                           ;main.c: 133: ADCON0 = 0b10000001;
  1140  027E  3081               	movlw	129
  1141  027F  1283               	bcf	3,5	;RP0=0, select bank0
  1142  0280  009F               	movwf	31	;volatile
  1143                           ;main.c: 134: ADCS0 = 1;
  1144  0281  1683               	bsf	3,5	;RP0=1, select bank1
  1145  0282  161F               	bsf	31,4
  1146                           ;main.c: 135: ADCS1 = 1;
  1147  0283  169F               	bsf	31,5
  1148                           ;main.c: 136: ADCS2 = 0;
  1149  0284  131F               	bcf	31,6
  1150                           ;main.c: 139: minutes = seconds = 0;
  1151  0285  1283               	bcf	3,5	;RP0=0, select bank0
  1152  0286  01EB               	clrf	107
  1153  0287  01ED               	clrf	109
  1154                           ;main.c: 140: hours = 12;
  1155  0288  300C               	movlw	12
  1156  0289  00FD               	movwf	125
  1157                           ;main.c: 142: Mode = 1;
  1158  028A  01A0               	clrf	32
  1159  028B  0AA0               	incf	32,f
  1160                           ;main.c: 145: SEG22COM2 = 1;
  1161  028C  1703               	bsf	3,6	;RP2=1, select bank2
  1162  028D  1718               	bsf	24,6
  1163                           ;main.c: 146: TRISB0 = 0;
  1164  028E  1683               	bsf	3,5	;RP0=1, select bank1
  1165  028F  1303               	bcf	3,6	;RP2=0, select bank1
  1166  0290  1006               	bcf	6,0
  1167                           ;main.c: 147: TRISB7 = 1;
  1168  0291  1786               	bsf	6,7
  1169                           ;main.c: 148: TRISB6 = 1;
  1170  0292  1706               	bsf	6,6
  1171                           ;main.c: 149: TRISA7 = 1;
  1172  0293  1785               	bsf	5,7
  1173                           ;main.c: 150: TRISA6 = 1;
  1174  0294  1705               	bsf	5,6
  1175                           ;main.c: 151: RB0 = 1;
  1176  0295  1283               	bcf	3,5	;RP0=0, select bank0
  1177  0296  1406               	bsf	6,0
  1178                           ;main.c: 152: IOCB6 = 1;
  1179  0297  1683               	bsf	3,5	;RP0=1, select bank1
  1180  0298  1716               	bsf	22,6
  1181                           ;main.c: 153: IOCB7 = 1;
  1182  0299  1796               	bsf	22,7
  1183                           ;main.c: 155: TMR1IF = 0;
  1184  029A  1283               	bcf	3,5	;RP0=0, select bank0
  1185  029B  100C               	bcf	12,0
  1186                           ;main.c: 156: TMR1IE = 1;
  1187  029C  1683               	bsf	3,5	;RP0=1, select bank1
  1188  029D  140C               	bsf	12,0
  1189                           ;main.c: 157: RBIF = 0;
  1190  029E  1283               	bcf	3,5	;RP0=0, select bank0
  1191  029F  100B               	bcf	11,0
  1192                           ;main.c: 158: RBIE = 1;
  1193  02A0  158B               	bsf	11,3
  1194                           ;main.c: 160: PEIE = 1;
  1195  02A1  170B               	bsf	11,6
  1196                           ;main.c: 161: GIE = 1;
  1197  02A2  178B               	bsf	11,7
  1198                           ;main.c: 163: }
  1199  02A3  0008               	return
  1200                           ; =============== function _init ends =========
      +                          ======
  1201  02A4                     __end_of_init:
  1202                           ;Data sizes: Strings 0, constant 0, data 0, bss
      +                           0, persistent 0 stack 12
  1203                           ; *************** function _main **************
      +                          *
  1204                           ; Defined at:
  1205                           ;		line 165 in file "K:\PRODEV\IMAGE\Samples\Mi
      +                          crochip\Eval Boards\PICDEM LCD with PIC16F917\m
      +                          ain.c"
  1206                           ; Parameters:
  1207                           ;		None
  1208                           ; Auto variables:
  1209                           ;		None
  1210                           ; Return value:
  1211                           ;		type: void 
  1212                           ;		size: 0
  1213                           ; Registers used:
  1214                           ;		wreg, fsr, status,2, status,0, pclath, cstac
      +                          k
  1215                           ; Tracked objects:
  1216                           ;		On entry : BFF/0
  1217                           ;		On exit  : BFF/0
  1218                           ;		Unchanged: FFFFFCFF/0
  1219                           ; Data sizes:
  1220                           ;		Autos:    0
  1221                           ;		Params:   0
  1222                           ;		Temp:     0
  1223                           ;		Total:    0
  1224                           ; This function calls:
  1225                           ;		_init
  1226                           ;		_displayTime
  1227                           ;		_clearscreen
  1228                           ;		_delay
  1229                           ;		_displayVoltage
  1230                           ;		_getTemperature
  1231                           ; This function is called by:
  1232                           ;		Startup code after reset
  1233                           ; This function uses a non-reentrant model
  1234                           ; 
  1235                           ;main.c: 165: void main(){
  1236  02A4                     _main:
  1237                           ; Regs used in _main: [wreg+fsr+status,2+status
      +                          ,0+pclath+cstack]
  1238                           ;main.c: 167: init();
  1239  02A4  2262               	fcall	_init
  1240                           ;main.c: 170: while(1){
  1241                           ;main.c: 173: while(Mode == 1){
  1242  02A5                     l14:
  1243  02A5  0B20               	decfsz	32,w
  1244  02A6  2AE0               	goto	l22
  1245                           ;main.c: 174: SEG18COM2 = 1;
  1246  02A7  1703               	bsf	3,6	;RP2=1, select bank2
  1247  02A8  1518               	bsf	24,2
  1248                           ;main.c: 175: SEG22COM2 = 1;
  1249  02A9  1718               	bsf	24,6
  1250                           ;main.c: 176: if (timeFlag){
  1251  02AA  1303               	bcf	3,6	;RP2=0, select bank0
  1252  02AB  1C6F               	btfss	111,0
  1253  02AC  2AB3               	goto	l17
  1254                           ;main.c: 177: displayTime();
  1255  02AD  2242  120A  118A   	fcall	_displayTime
  1256                           ;main.c: 178: timeFlag = 0;
  1257  02B0  1283               	bcf	3,5	;RP0=0, select bank0
  1258  02B1  1303               	bcf	3,6	;RP2=0, select bank0
  1259  02B2  106F               	bcf	111,0
  1260  02B3                     l17:
  1261                           ;main.c: 179: }
  1262                           ;main.c: 181: if(SW1 == 1){
  1263  02B3  0B65               	decfsz	101,w
  1264  02B4  2ABA               	goto	l18
  1265                           ;main.c: 182: Mode = 2;
  1266  02B5  3002               	movlw	2
  1267  02B6  00A0               	movwf	32
  1268                           ;main.c: 183: SW1 = 0;
  1269  02B7  01E5               	clrf	101
  1270                           ;main.c: 184: clearscreen();
  1271  02B8  201A               	fcall	_clearscreen
  1272                           ;main.c: 185: delay();
  1273  02B9  25E5               	fcall	_delay
  1274  02BA                     l18:
  1275                           ;main.c: 186: }
  1276                           ;main.c: 188: if(SW2 == 1){
  1277  02BA  1303               	bcf	3,6	;RP2=0, select bank0
  1278  02BB  0B66               	decfsz	102,w
  1279  02BC  2AA5               	goto	l14
  1280                           ;main.c: 189: minutes++;
  1281  02BD  0AED               	incf	109,f
  1282                           ;main.c: 190: if(minutes == 60){
  1283  02BE  086D               	movf	109,w
  1284  02BF  3A3C               	xorlw	60
  1285  02C0  1D03               	btfss	3,2
  1286  02C1  2ACA               	goto	l20
  1287                           ;main.c: 191: minutes = 0;
  1288  02C2  01ED               	clrf	109
  1289                           ;main.c: 192: hours ++;
  1290  02C3  0AFD               	incf	125,f
  1291                           ;main.c: 193: if(hours>12){
  1292  02C4  300D               	movlw	13
  1293  02C5  027D               	subwf	125,w
  1294  02C6  1C03               	btfss	3,0
  1295  02C7  2ACA               	goto	l20
  1296                           ;main.c: 194: hours = 1;
  1297  02C8  01FD               	clrf	125
  1298  02C9  0AFD               	incf	125,f
  1299  02CA                     l20:
  1300                           ;main.c: 195: }
  1301                           ;main.c: 196: }
  1302                           ;main.c: 197: SW2 = 0;
  1303  02CA  01E6               	clrf	102
  1304                           ;main.c: 198: timeFlag = 1;
  1305  02CB  146F               	bsf	111,0
  1306                           ;main.c: 199: delay();
  1307  02CC  25E5               	fcall	_delay
  1308  02CD  2AA5               	goto	l14
  1309                           ;main.c: 200: }
  1310                           ;main.c: 202: }
  1311                           ;main.c: 203: while(Mode == 2){
  1312  02CE                     l23:
  1313                           ;main.c: 204: SEG18COM1 = 1;
  1314  02CE  1703               	bsf	3,6	;RP2=1, select bank2
  1315  02CF  1515               	bsf	21,2
  1316                           ;main.c: 206: displayVoltage();
  1317  02D0  261F  120A  118A   	fcall	_displayVoltage
  1318                           ;main.c: 208: if(SW1 == 1){
  1319  02D3  1303               	bcf	3,6	;RP2=0, select bank0
  1320  02D4  0B65               	decfsz	101,w
  1321  02D5  2ADB               	goto	l25
  1322                           ;main.c: 209: Mode = 3;
  1323  02D6  3003               	movlw	3
  1324  02D7  00A0               	movwf	32
  1325                           ;main.c: 210: SW1 = 0;
  1326  02D8  01E5               	clrf	101
  1327                           ;main.c: 211: clearscreen();
  1328  02D9  201A               	fcall	_clearscreen
  1329                           ;main.c: 212: delay();
  1330  02DA  25E5               	fcall	_delay
  1331  02DB                     l25:
  1332                           ;main.c: 213: }
  1333                           ;main.c: 215: if(SW2 == 1){
  1334  02DB  1303               	bcf	3,6	;RP2=0, select bank0
  1335  02DC  0B66               	decfsz	102,w
  1336  02DD  2AE0               	goto	l22
  1337                           ;main.c: 216: SW2 = 0;
  1338  02DE  01E6               	clrf	102
  1339                           ;main.c: 217: delay();
  1340  02DF  25E5               	fcall	_delay
  1341  02E0                     l22:
  1342  02E0  0820               	movf	32,w
  1343  02E1  3A02               	xorlw	2
  1344  02E2  1D03               	btfss	3,2
  1345  02E3  2AF7               	goto	l27
  1346  02E4  2ACE               	goto	l23
  1347                           ;main.c: 218: }
  1348                           ;main.c: 221: }
  1349                           ;main.c: 222: while(Mode == 3){
  1350  02E5                     l28:
  1351                           ;main.c: 223: SEG18COM3 = 1;
  1352  02E5  1703               	bsf	3,6	;RP2=1, select bank2
  1353  02E6  151B               	bsf	27,2
  1354                           ;main.c: 225: getTemperature();
  1355  02E7  25F3  120A  118A   	fcall	_getTemperature
  1356                           ;main.c: 227: if(SW1 == 1){
  1357  02EA  1303               	bcf	3,6	;RP2=0, select bank0
  1358  02EB  0B65               	decfsz	101,w
  1359  02EC  2AF2               	goto	l30
  1360                           ;main.c: 228: Mode = 1;
  1361  02ED  01A0               	clrf	32
  1362  02EE  0AA0               	incf	32,f
  1363                           ;main.c: 229: SW1 = 0;
  1364  02EF  01E5               	clrf	101
  1365                           ;main.c: 230: clearscreen();
  1366  02F0  201A               	fcall	_clearscreen
  1367                           ;main.c: 231: delay();
  1368  02F1  25E5               	fcall	_delay
  1369  02F2                     l30:
  1370                           ;main.c: 232: }
  1371                           ;main.c: 234: if(SW2 == 1){
  1372  02F2  1303               	bcf	3,6	;RP2=0, select bank0
  1373  02F3  0B66               	decfsz	102,w
  1374  02F4  2AF7               	goto	l27
  1375                           ;main.c: 235: SW2 = 0;
  1376  02F5  01E6               	clrf	102
  1377                           ;main.c: 236: delay();
  1378  02F6  25E5               	fcall	_delay
  1379  02F7                     l27:
  1380  02F7  0820               	movf	32,w
  1381  02F8  3A03               	xorlw	3
  1382  02F9  1D03               	btfss	3,2
  1383  02FA  2AA5               	goto	l14
  1384  02FB  2AE5               	goto	l28
  1385                           ; =============== function _main ends =========
      +                          ======
  1386  02FC                     __end_of_main:
  1387                           ; *************** function ___lwdiv ***********
      +                          ****
  1388                           ; Defined at:
  1389                           ;		line 5 in file "C:\Programmi\HI-TECH Softwar
      +                          e\PICC\PRO\9.60\sources\lwdiv.c"
  1390                           ; Parameters:
  1391                           ;		dividend    	offs:   0	type: unsigned int 
  1392                           ;		divisor     	offs:   2	type: unsigned int 
  1393                           ; Auto variables:
  1394                           ;		counter     	       	type: unsigned char 
  1395                           ;		quotient    	       	type: unsigned int 
  1396                           ; Return value:
  1397                           ;		type: unsigned int 
  1398                           ;		size: 2
  1399                           ; Registers used:
  1400                           ;		wreg, status,2, status,0
  1401                           ; Tracked objects:
  1402                           ;		On entry : 0/0
  1403                           ;		On exit  : 0/0
  1404                           ;		Unchanged: FFFFFFFF/0
  1405                           ; Data sizes:
  1406                           ;		Autos:    3
  1407                           ;		Params:   4
  1408                           ;		Temp:     0
  1409                           ;		Total:    7
  1410                           ; This function calls:
  1411                           ; This function is called by:
  1412                           ;		_displayVoltage
  1413                           ;		_display4dig
  1414                           ;		_getTemperature
  1415                           ;		_displayTemp
  1416                           ; This function uses a non-reentrant model
  1417                           ; 
  1418  02FC                     ___lwdiv:
  1419                           ; Regs used in ___lwdiv: [wreg+status,2+status,
      +                          0]
  1420  02FC  01F8               	clrf	??___lwdiv+1
  1421  02FD  01F9               	clrf	??___lwdiv+2
  1422  02FE  0876               	movf	(?___lwdiv+3)& (0+127),w
  1423  02FF  0475               	iorwf	(?___lwdiv+2)& (0+127),w
  1424  0300  1903               	btfsc	3,2
  1425  0301  2B21               	goto	l157
  1426  0302  01F7               	clrf	??___lwdiv
  1427  0303                     L2:
  1428  0303  0AF7               	incf	??___lwdiv,f
  1429  0304  1003               	bcf	3,0
  1430  0305  1BF6               	btfsc	?___lwdiv+3,7
  1431  0306  2B0B               	goto	L4
  1432  0307  0DF5               	rlf	?___lwdiv+2,f
  1433  0308  0DF6               	rlf	?___lwdiv+3,f
  1434  0309  2B03               	goto	L2
  1435  030A                     l163:
  1436  030A  1003               	bcf	3,0
  1437  030B                     L4:
  1438  030B  0DF8               	rlf	??___lwdiv+1,f
  1439  030C  0DF9               	rlf	??___lwdiv+2,f
  1440  030D  0876               	movf	?___lwdiv+3,w
  1441  030E  0274               	subwf	?___lwdiv+1,w
  1442  030F  1D03               	btfss	3,2
  1443  0310  2B13               	goto	u1755
  1444  0311  0875               	movf	?___lwdiv+2,w
  1445  0312  0273               	subwf	?___lwdiv,w
  1446  0313                     u1755:
  1447  0313  1C03               	btfss	3,0
  1448  0314  2B1D               	goto	L3
  1449  0315  0875               	movf	?___lwdiv+2,w
  1450  0316  02F3               	subwf	?___lwdiv,f
  1451  0317  0876               	movf	?___lwdiv+3,w
  1452  0318  1C03               	btfss	3,0
  1453  0319  03F4               	decf	?___lwdiv+1,f
  1454  031A  02F4               	subwf	?___lwdiv+1,f
  1455  031B  1478               	bsf	??___lwdiv+1,0
  1456  031C  1003               	bcf	3,0
  1457  031D                     L3:
  1458  031D  0CF6               	rrf	?___lwdiv+3,f
  1459  031E  0CF5               	rrf	?___lwdiv+2,f
  1460  031F  0BF7               	decfsz	??___lwdiv,f
  1461  0320  2B0A               	goto	l163
  1462  0321                     l157:
  1463  0321  0879               	movf	??___lwdiv+2,w
  1464  0322  00F4               	movwf	?___lwdiv+1
  1465  0323  0878               	movf	??___lwdiv+1,w
  1466  0324  00F3               	movwf	?___lwdiv
  1467  0325  0008               	return
  1468                           ; =============== function ___lwdiv ends ======
      +                          =========
  1469  0326                     __end_of___lwdiv:
  1470                           ; *************** function _display4dig *******
      +                          ********
  1471                           ; Defined at:
  1472                           ;		line 563 in file "K:\PRODEV\IMAGE\Samples\Mi
      +                          crochip\Eval Boards\PICDEM LCD with PIC16F917\m
      +                          ain.c"
  1473                           ; Parameters:
  1474                           ;		number      	offs:   0	type: unsigned int 
  1475                           ; Auto variables:
  1476                           ;		temp        	       	type: unsigned char 
  1477                           ; Return value:
  1478                           ;		type: void 
  1479                           ;		size: 0
  1480                           ; Registers used:
  1481                           ;		wreg, fsr, status,2, status,0, pclath, cstac
      +                          k
  1482                           ; Tracked objects:
  1483                           ;		On entry : 300/0
  1484                           ;		On exit  : 0/0
  1485                           ;		Unchanged: FFFFFCFF/0
  1486                           ; Data sizes:
  1487                           ;		Autos:    1
  1488                           ;		Params:   2
  1489                           ;		Temp:     0
  1490                           ;		Total:    3
  1491                           ; This function calls:
  1492                           ;		___lwdiv
  1493                           ;		_displayNumber
  1494                           ;		___wmul
  1495                           ; This function is called by:
  1496                           ;		_displayVoltage
  1497                           ; This function uses a non-reentrant model
  1498                           ; 
  1499                           ;main.c: 563: void display4dig(unsigned int num
      +                          ber){
  1500  0326                     _display4dig:
  1501                           ; Regs used in _display4dig: [wreg+fsr+status,2
      +                          +status,0+pclath+cstack]
  1502                           ;main.c: 564: unsigned char temp;
  1503                           ;main.c: 565: temp = number / 1000;
  1504  0326  30E8               	movlw	232
  1505  0327  00F5               	movwf	(?___lwdiv+2)& (0+127)
  1506  0328  3003               	movlw	3
  1507  0329  00F6               	movwf	((?___lwdiv+2)& (0+127)+1)
  1508  032A  0871               	movf	?_display4dig+1,w
  1509  032B  00F4               	movwf	?___lwdiv+1
  1510  032C  0870               	movf	?_display4dig,w
  1511  032D  00F3               	movwf	?___lwdiv
  1512  032E  22FC               	fcall	___lwdiv
  1513  032F  0873               	movf	?___lwdiv,w
  1514  0330  00F2               	movwf	??_display4dig
  1515                           ;main.c: 566: displayNumber(2, temp);
  1516  0331  00F3               	movwf	?_displayNumber
  1517  0332  3002               	movlw	2
  1518  0333  2028               	fcall	_displayNumber
  1519                           ;main.c: 567: number = number - temp * 1000;
  1520  0334  3018               	movlw	24
  1521  0335  00F5               	movwf	(?___wmul+2)& (0+127)
  1522  0336  30FC               	movlw	252
  1523  0337  00F6               	movwf	((?___wmul+2)& (0+127)+1)
  1524  0338  0872               	movf	??_display4dig,w
  1525  0339  00F3               	movwf	?___wmul
  1526  033A  01F4               	clrf	?___wmul+1
  1527  033B  25CC               	fcall	___wmul
  1528  033C  0873               	movf	?___wmul,w
  1529  033D  07F0               	addwf	?_display4dig,f
  1530  033E  1803               	btfsc	3,0
  1531  033F  0AF1               	incf	?_display4dig+1,f
  1532  0340  0874               	movf	?___wmul+1,w
  1533  0341  07F1               	addwf	?_display4dig+1,f
  1534                           ;main.c: 568: temp = number / 100;
  1535  0342  3064               	movlw	100
  1536  0343  00F5               	movwf	(?___lwdiv+2)& (0+127)
  1537  0344  01F6               	clrf	(?___lwdiv+3)& (0+127)
  1538  0345  0871               	movf	?_display4dig+1,w
  1539  0346  00F4               	movwf	?___lwdiv+1
  1540  0347  0870               	movf	?_display4dig,w
  1541  0348  00F3               	movwf	?___lwdiv
  1542  0349  22FC               	fcall	___lwdiv
  1543  034A  0873               	movf	?___lwdiv,w
  1544  034B  00F2               	movwf	??_display4dig
  1545                           ;main.c: 570: displayNumber(3, temp);
  1546  034C  00F3               	movwf	?_displayNumber
  1547  034D  3003               	movlw	3
  1548  034E  2028               	fcall	_displayNumber
  1549                           ;main.c: 571: number = number - temp * 100;
  1550  034F  309C               	movlw	156
  1551  0350  00F5               	movwf	(?___wmul+2)& (0+127)
  1552  0351  30FF               	movlw	255
  1553  0352  00F6               	movwf	((?___wmul+2)& (0+127)+1)
  1554  0353  0872               	movf	??_display4dig,w
  1555  0354  00F3               	movwf	?___wmul
  1556  0355  01F4               	clrf	?___wmul+1
  1557  0356  25CC               	fcall	___wmul
  1558  0357  0873               	movf	?___wmul,w
  1559  0358  07F0               	addwf	?_display4dig,f
  1560  0359  1803               	btfsc	3,0
  1561  035A  0AF1               	incf	?_display4dig+1,f
  1562  035B  0874               	movf	?___wmul+1,w
  1563  035C  07F1               	addwf	?_display4dig+1,f
  1564                           ;main.c: 572: temp = number / 10;
  1565  035D  300A               	movlw	10
  1566  035E  00F5               	movwf	(?___lwdiv+2)& (0+127)
  1567  035F  01F6               	clrf	(?___lwdiv+3)& (0+127)
  1568  0360  0871               	movf	?_display4dig+1,w
  1569  0361  00F4               	movwf	?___lwdiv+1
  1570  0362  0870               	movf	?_display4dig,w
  1571  0363  00F3               	movwf	?___lwdiv
  1572  0364  22FC               	fcall	___lwdiv
  1573  0365  0873               	movf	?___lwdiv,w
  1574  0366  00F2               	movwf	??_display4dig
  1575                           ;main.c: 574: displayNumber(4, temp);
  1576  0367  00F3               	movwf	?_displayNumber
  1577  0368  3004               	movlw	4
  1578  0369  2028               	fcall	_displayNumber
  1579                           ;main.c: 575: number = number - temp * 10;
  1580  036A  30F6               	movlw	246
  1581  036B  00F5               	movwf	(?___wmul+2)& (0+127)
  1582  036C  30FF               	movlw	255
  1583  036D  00F6               	movwf	((?___wmul+2)& (0+127)+1)
  1584  036E  0872               	movf	??_display4dig,w
  1585  036F  00F3               	movwf	?___wmul
  1586  0370  01F4               	clrf	?___wmul+1
  1587  0371  25CC               	fcall	___wmul
  1588  0372  0873               	movf	?___wmul,w
  1589  0373  07F0               	addwf	?_display4dig,f
  1590  0374  1803               	btfsc	3,0
  1591  0375  0AF1               	incf	?_display4dig+1,f
  1592  0376  0874               	movf	?___wmul+1,w
  1593  0377  07F1               	addwf	?_display4dig+1,f
  1594                           ;main.c: 576: displayNumber(5, number);
  1595  0378  0870               	movf	?_display4dig,w
  1596  0379  00F3               	movwf	?_displayNumber
  1597  037A  3005               	movlw	5
  1598  037B  2828               	ljmp	_displayNumber
  1599                           ;main.c: 577: }
  1600                           ; =============== function _display4dig ends ==
      +                          =============
  1601  037C                     __end_of_display4dig:
  1602                           ; *************** function _displayTemp *******
      +                          ********
  1603                           ; Defined at:
  1604                           ;		line 600 in file "K:\PRODEV\IMAGE\Samples\Mi
      +                          crochip\Eval Boards\PICDEM LCD with PIC16F917\m
      +                          ain.c"
  1605                           ; Parameters:
  1606                           ;		number      	offs:   0	type: unsigned int 
  1607                           ; Auto variables:
  1608                           ;		temp        	       	type: unsigned char 
  1609                           ; Return value:
  1610                           ;		type: void 
  1611                           ;		size: 0
  1612                           ; Registers used:
  1613                           ;		wreg, fsr, status,2, status,0, pclath, cstac
      +                          k
  1614                           ; Tracked objects:
  1615                           ;		On entry : 300/0
  1616                           ;		On exit  : 300/200
  1617                           ;		Unchanged: FFFFFCFF/0
  1618                           ; Data sizes:
  1619                           ;		Autos:    1
  1620                           ;		Params:   2
  1621                           ;		Temp:     0
  1622                           ;		Total:    3
  1623                           ; This function calls:
  1624                           ;		___lwdiv
  1625                           ;		_displayNumber
  1626                           ;		___wmul
  1627                           ; This function is called by:
  1628                           ;		_getTemperature
  1629                           ; This function uses a non-reentrant model
  1630                           ; 
  1631                           ;main.c: 600: void displayTemp(unsigned int num
      +                          ber){
  1632  037C                     _displayTemp:
  1633                           ; Regs used in _displayTemp: [wreg+fsr+status,2
      +                          +status,0+pclath+cstack]
  1634                           ;main.c: 602: unsigned char temp;
  1635                           ;main.c: 603: temp = number / 100;
  1636  037C  3064               	movlw	100
  1637  037D  00F5               	movwf	(?___lwdiv+2)& (0+127)
  1638  037E  01F6               	clrf	(?___lwdiv+3)& (0+127)
  1639  037F  0871               	movf	?_displayTemp+1,w
  1640  0380  00F4               	movwf	?___lwdiv+1
  1641  0381  0870               	movf	?_displayTemp,w
  1642  0382  00F3               	movwf	?___lwdiv
  1643  0383  22FC               	fcall	___lwdiv
  1644  0384  0873               	movf	?___lwdiv,w
  1645  0385  00F2               	movwf	??_displayTemp
  1646                           ;main.c: 605: displayNumber(3, temp);
  1647  0386  00F3               	movwf	?_displayNumber
  1648  0387  3003               	movlw	3
  1649  0388  2028               	fcall	_displayNumber
  1650                           ;main.c: 606: number = number - temp * 100;
  1651  0389  309C               	movlw	156
  1652  038A  00F5               	movwf	(?___wmul+2)& (0+127)
  1653  038B  30FF               	movlw	255
  1654  038C  00F6               	movwf	((?___wmul+2)& (0+127)+1)
  1655  038D  0872               	movf	??_displayTemp,w
  1656  038E  00F3               	movwf	?___wmul
  1657  038F  01F4               	clrf	?___wmul+1
  1658  0390  25CC               	fcall	___wmul
  1659  0391  0873               	movf	?___wmul,w
  1660  0392  07F0               	addwf	?_displayTemp,f
  1661  0393  1803               	btfsc	3,0
  1662  0394  0AF1               	incf	?_displayTemp+1,f
  1663  0395  0874               	movf	?___wmul+1,w
  1664  0396  07F1               	addwf	?_displayTemp+1,f
  1665                           ;main.c: 607: temp = number / 10;
  1666  0397  300A               	movlw	10
  1667  0398  00F5               	movwf	(?___lwdiv+2)& (0+127)
  1668  0399  01F6               	clrf	(?___lwdiv+3)& (0+127)
  1669  039A  0871               	movf	?_displayTemp+1,w
  1670  039B  00F4               	movwf	?___lwdiv+1
  1671  039C  0870               	movf	?_displayTemp,w
  1672  039D  00F3               	movwf	?___lwdiv
  1673  039E  22FC               	fcall	___lwdiv
  1674  039F  0873               	movf	?___lwdiv,w
  1675  03A0  00F2               	movwf	??_displayTemp
  1676                           ;main.c: 609: displayNumber(4, temp);
  1677  03A1  00F3               	movwf	?_displayNumber
  1678  03A2  3004               	movlw	4
  1679  03A3  2028               	fcall	_displayNumber
  1680                           ;main.c: 610: number = number - temp * 10;
  1681  03A4  30F6               	movlw	246
  1682  03A5  00F5               	movwf	(?___wmul+2)& (0+127)
  1683  03A6  30FF               	movlw	255
  1684  03A7  00F6               	movwf	((?___wmul+2)& (0+127)+1)
  1685  03A8  0872               	movf	??_displayTemp,w
  1686  03A9  00F3               	movwf	?___wmul
  1687  03AA  01F4               	clrf	?___wmul+1
  1688  03AB  25CC               	fcall	___wmul
  1689  03AC  0873               	movf	?___wmul,w
  1690  03AD  07F0               	addwf	?_displayTemp,f
  1691  03AE  1803               	btfsc	3,0
  1692  03AF  0AF1               	incf	?_displayTemp+1,f
  1693  03B0  0874               	movf	?___wmul+1,w
  1694  03B1  07F1               	addwf	?_displayTemp+1,f
  1695                           ;main.c: 611: displayNumber(5, number);
  1696  03B2  0870               	movf	?_displayTemp,w
  1697  03B3  00F3               	movwf	?_displayNumber
  1698  03B4  3005               	movlw	5
  1699  03B5  2028               	fcall	_displayNumber
  1700                           ;main.c: 613: SEG4COM2 = 1;
  1701  03B6  1283               	bcf	3,5	;RP0=0, select bank2
  1702  03B7  1703               	bsf	3,6	;RP2=1, select bank2
  1703  03B8  1616               	bsf	22,4
  1704                           ;main.c: 614: SEG1COM2 = 1;
  1705  03B9  1496               	bsf	22,1
  1706                           ;main.c: 616: }
  1707  03BA  0008               	return
  1708                           ; =============== function _displayTemp ends ==
      +                          =============
  1709  03BB                     __end_of_displayTemp:
  1710                           ; *************** function _displayBars *******
      +                          ********
  1711                           ; Defined at:
  1712                           ;		line 441 in file "K:\PRODEV\IMAGE\Samples\Mi
      +                          crochip\Eval Boards\PICDEM LCD with PIC16F917\m
      +                          ain.c"
  1713                           ; Parameters:
  1714                           ;		value       	reg:   wr	type: unsigned char 
  1715                           ; Auto variables:
  1716                           ;		value       	       	type: unsigned char 
  1717                           ; Return value:
  1718                           ;		type: void 
  1719                           ;		size: 0
  1720                           ; Registers used:
  1721                           ;		wreg, fsr, status,2, status,0
  1722                           ; Tracked objects:
  1723                           ;		On entry : 300/0
  1724                           ;		On exit  : 100/0
  1725                           ;		Unchanged: FFFFFCFF/0
  1726                           ; Data sizes:
  1727                           ;		Autos:    1
  1728                           ;		Params:   0
  1729                           ;		Temp:     0
  1730                           ;		Total:    1
  1731                           ; This function calls:
  1732                           ;		Nothing
  1733                           ; This function is called by:
  1734                           ;		_displayVoltage
  1735                           ; This function uses a non-reentrant model
  1736                           ; 
  1737                           ;main.c: 441: void displayBars(unsigned char va
      +                          lue){
  1738  03BB                     _displayBars:
  1739                           ; Regs used in _displayBars: [wreg+fsr+status,2
      +                          +status,0]
  1740                           ;_displayBars_value stored from wreg
  1741  03BB  00F0               	movwf	??_displayBars
  1742                           ;main.c: 442: switch(value){
  1743  03BC  2D8B               	goto	l106
  1744                           ;main.c: 443: case 0:
  1745  03BD                     l107:
  1746                           ;main.c: 444: SEG17COM0=SEG17COM3=SEG17COM1=SEG
      +                          17COM2=SEG16COM2=SEG16COM1=SEG16COM3=SEG16COM0=
      +                          SEG15COM0=SEG15COM3=SEG15COM1=SEG15COM2=SEG11CO
      +                          M2=SEG11COM1=SEG11COM3=SEG11COM0=SEG10COM0=SEG1
      +                          0COM3=SEG10COM1=SEG10COM2=0;
  1747  03BD  1703               	bsf	3,6	;RP2=1, select bank2
  1748  03BE  1117               	bcf	23,2
  1749  03BF  1114               	bcf	20,2
  1750  03C0  111A               	bcf	26,2
  1751  03C1  1111               	bcf	17,2
  1752  03C2  1191               	bcf	17,3
  1753  03C3  119A               	bcf	26,3
  1754  03C4  1194               	bcf	20,3
  1755  03C5  1197               	bcf	23,3
  1756  03C6  1397               	bcf	23,7
  1757  03C7  1394               	bcf	20,7
  1758  03C8  139A               	bcf	26,7
  1759  03C9  1391               	bcf	17,7
  1760  03CA  1012               	bcf	18,0
  1761  03CB  101B               	bcf	27,0
  1762  03CC  1015               	bcf	21,0
  1763  03CD  1018               	bcf	24,0
  1764  03CE  1098               	bcf	24,1
  1765  03CF  1095               	bcf	21,1
  1766  03D0  109B               	bcf	27,1
  1767  03D1  1092               	bcf	18,1
  1768                           ;main.c: 445: break;
  1769  03D2  0008               	return
  1770                           ;main.c: 446: case 1:
  1771  03D3                     l108:
  1772                           ;main.c: 447: SEG17COM0=1;
  1773  03D3  1703               	bsf	3,6	;RP2=1, select bank2
  1774  03D4  1492               	bsf	18,1
  1775                           ;main.c: 448: SEG17COM3=SEG17COM1=SEG17COM2=SEG
      +                          16COM2=SEG16COM1=SEG16COM3=SEG16COM0=SEG15COM0=
      +                          SEG15COM3=SEG15COM1=SEG15COM2=SEG11COM2=SEG11CO
      +                          M1=SEG11COM3=SEG11COM0=SEG10COM0=SEG10COM3=SEG1
      +                          0COM1=SEG10COM2=0;
  1776  03D5  1117               	bcf	23,2
  1777  03D6  1114               	bcf	20,2
  1778  03D7  111A               	bcf	26,2
  1779  03D8  1111               	bcf	17,2
  1780  03D9  1191               	bcf	17,3
  1781  03DA  119A               	bcf	26,3
  1782  03DB  1194               	bcf	20,3
  1783  03DC  1197               	bcf	23,3
  1784  03DD  1397               	bcf	23,7
  1785  03DE  1394               	bcf	20,7
  1786  03DF  139A               	bcf	26,7
  1787  03E0  1391               	bcf	17,7
  1788  03E1  1012               	bcf	18,0
  1789  03E2  101B               	bcf	27,0
  1790  03E3  1015               	bcf	21,0
  1791  03E4  1018               	bcf	24,0
  1792  03E5  1098               	bcf	24,1
  1793  03E6  1095               	bcf	21,1
  1794  03E7  109B               	bcf	27,1
  1795                           ;main.c: 449: break;
  1796  03E8  0008               	return
  1797                           ;main.c: 450: case 2:
  1798  03E9                     l109:
  1799                           ;main.c: 451: SEG17COM3=1;SEG17COM0=1;
  1800  03E9  1703               	bsf	3,6	;RP2=1, select bank2
  1801  03EA  149B               	bsf	27,1
  1802  03EB  1492               	bsf	18,1
  1803                           ;main.c: 452: SEG17COM1=SEG17COM2=SEG16COM2=SEG
      +                          16COM1=SEG16COM3=SEG16COM0=SEG15COM0=SEG15COM3=
      +                          SEG15COM1=SEG15COM2=SEG11COM2=SEG11COM1=SEG11CO
      +                          M3=SEG11COM0=SEG10COM0=SEG10COM3=SEG10COM1=SEG1
      +                          0COM2=0;
  1804  03EC  1117               	bcf	23,2
  1805  03ED  1114               	bcf	20,2
  1806  03EE  111A               	bcf	26,2
  1807  03EF  1111               	bcf	17,2
  1808  03F0  1191               	bcf	17,3
  1809  03F1  119A               	bcf	26,3
  1810  03F2  1194               	bcf	20,3
  1811  03F3  1197               	bcf	23,3
  1812  03F4  1397               	bcf	23,7
  1813  03F5  1394               	bcf	20,7
  1814  03F6  139A               	bcf	26,7
  1815  03F7  1391               	bcf	17,7
  1816  03F8  1012               	bcf	18,0
  1817  03F9  101B               	bcf	27,0
  1818  03FA  1015               	bcf	21,0
  1819  03FB  1018               	bcf	24,0
  1820  03FC  1098               	bcf	24,1
  1821  03FD  1095               	bcf	21,1
  1822                           ;main.c: 453: break;
  1823  03FE  0008               	return
  1824                           ;main.c: 454: case 3:
  1825  03FF                     l110:
  1826                           ;main.c: 455: SEG17COM1=1;SEG17COM3=1;SEG17COM0
      +                          =1;
  1827  03FF  1703               	bsf	3,6	;RP2=1, select bank2
  1828  0400  1495               	bsf	21,1
  1829  0401  149B               	bsf	27,1
  1830  0402  1492               	bsf	18,1
  1831                           ;main.c: 456: SEG17COM2=SEG16COM2=SEG16COM1=SEG
      +                          16COM3=SEG16COM0=SEG15COM0=SEG15COM3=SEG15COM1=
      +                          SEG15COM2=SEG11COM2=SEG11COM1=SEG11COM3=SEG11CO
      +                          M0=SEG10COM0=SEG10COM3=SEG10COM1=SEG10COM2=0;
  1832  0403  1117               	bcf	23,2
  1833  0404  1114               	bcf	20,2
  1834  0405  111A               	bcf	26,2
  1835  0406  1111               	bcf	17,2
  1836  0407  1191               	bcf	17,3
  1837  0408  119A               	bcf	26,3
  1838  0409  1194               	bcf	20,3
  1839  040A  1197               	bcf	23,3
  1840  040B  1397               	bcf	23,7
  1841  040C  1394               	bcf	20,7
  1842  040D  139A               	bcf	26,7
  1843  040E  1391               	bcf	17,7
  1844  040F  1012               	bcf	18,0
  1845  0410  101B               	bcf	27,0
  1846  0411  1015               	bcf	21,0
  1847  0412  1018               	bcf	24,0
  1848  0413  1098               	bcf	24,1
  1849                           ;main.c: 457: break;
  1850  0414  0008               	return
  1851                           ;main.c: 458: case 4:
  1852  0415                     l111:
  1853                           ;main.c: 459: SEG17COM2=1;SEG17COM1=1;SEG17COM3
      +                          =1;SEG17COM0=1;
  1854  0415  1703               	bsf	3,6	;RP2=1, select bank2
  1855  0416  1498               	bsf	24,1
  1856  0417  1495               	bsf	21,1
  1857  0418  149B               	bsf	27,1
  1858  0419  1492               	bsf	18,1
  1859                           ;main.c: 460: SEG16COM2=SEG16COM1=SEG16COM3=SEG
      +                          16COM0=SEG15COM0=SEG15COM3=SEG15COM1=SEG15COM2=
      +                          SEG11COM2=SEG11COM1=SEG11COM3=SEG11COM0=SEG10CO
      +                          M0=SEG10COM3=SEG10COM1=SEG10COM2=0;
  1860  041A  1117               	bcf	23,2
  1861  041B  1114               	bcf	20,2
  1862  041C  111A               	bcf	26,2
  1863  041D  1111               	bcf	17,2
  1864  041E  1191               	bcf	17,3
  1865  041F  119A               	bcf	26,3
  1866  0420  1194               	bcf	20,3
  1867  0421  1197               	bcf	23,3
  1868  0422  1397               	bcf	23,7
  1869  0423  1394               	bcf	20,7
  1870  0424  139A               	bcf	26,7
  1871  0425  1391               	bcf	17,7
  1872  0426  1012               	bcf	18,0
  1873  0427  101B               	bcf	27,0
  1874  0428  1015               	bcf	21,0
  1875  0429  1018               	bcf	24,0
  1876                           ;main.c: 461: break;
  1877  042A  0008               	return
  1878                           ;main.c: 462: case 5:
  1879  042B                     l112:
  1880                           ;main.c: 463: SEG16COM2=1;SEG17COM2=1;SEG17COM1
      +                          =1;SEG17COM3=1;SEG17COM0=1;
  1881  042B  1703               	bsf	3,6	;RP2=1, select bank2
  1882  042C  1418               	bsf	24,0
  1883  042D  1498               	bsf	24,1
  1884  042E  1495               	bsf	21,1
  1885  042F  149B               	bsf	27,1
  1886  0430  1492               	bsf	18,1
  1887                           ;main.c: 464: SEG16COM1=SEG16COM3=SEG16COM0=SEG
      +                          15COM0=SEG15COM3=SEG15COM1=SEG15COM2=SEG11COM2=
      +                          SEG11COM1=SEG11COM3=SEG11COM0=SEG10COM0=SEG10CO
      +                          M3=SEG10COM1=SEG10COM2=0;
  1888  0431  1117               	bcf	23,2
  1889  0432  1114               	bcf	20,2
  1890  0433  111A               	bcf	26,2
  1891  0434  1111               	bcf	17,2
  1892  0435  1191               	bcf	17,3
  1893  0436  119A               	bcf	26,3
  1894  0437  1194               	bcf	20,3
  1895  0438  1197               	bcf	23,3
  1896  0439  1397               	bcf	23,7
  1897  043A  1394               	bcf	20,7
  1898  043B  139A               	bcf	26,7
  1899  043C  1391               	bcf	17,7
  1900  043D  1012               	bcf	18,0
  1901  043E  101B               	bcf	27,0
  1902  043F  1015               	bcf	21,0
  1903                           ;main.c: 465: break;
  1904  0440  0008               	return
  1905                           ;main.c: 466: case 6:
  1906  0441                     l113:
  1907                           ;main.c: 467: SEG16COM1=1;SEG16COM2=1;SEG17COM2
      +                          =1;SEG17COM1=1;SEG17COM3=1;SEG17COM0=1;
  1908  0441  1703               	bsf	3,6	;RP2=1, select bank2
  1909  0442  1415               	bsf	21,0
  1910  0443  1418               	bsf	24,0
  1911  0444  1498               	bsf	24,1
  1912  0445  1495               	bsf	21,1
  1913  0446  149B               	bsf	27,1
  1914  0447  1492               	bsf	18,1
  1915                           ;main.c: 468: SEG16COM3=SEG16COM0=SEG15COM0=SEG
      +                          15COM3=SEG15COM1=SEG15COM2=SEG11COM2=SEG11COM1=
      +                          SEG11COM3=SEG11COM0=SEG10COM0=SEG10COM3=SEG10CO
      +                          M1=SEG10COM2=0;
  1916  0448  1117               	bcf	23,2
  1917  0449  1114               	bcf	20,2
  1918  044A  111A               	bcf	26,2
  1919  044B  1111               	bcf	17,2
  1920  044C  1191               	bcf	17,3
  1921  044D  119A               	bcf	26,3
  1922  044E  1194               	bcf	20,3
  1923  044F  1197               	bcf	23,3
  1924  0450  1397               	bcf	23,7
  1925  0451  1394               	bcf	20,7
  1926  0452  139A               	bcf	26,7
  1927  0453  1391               	bcf	17,7
  1928  0454  1012               	bcf	18,0
  1929  0455  101B               	bcf	27,0
  1930                           ;main.c: 469: break;
  1931  0456  0008               	return
  1932                           ;main.c: 470: case 7:
  1933  0457                     l114:
  1934                           ;main.c: 471: SEG16COM3=1;SEG16COM1=1;SEG16COM2
      +                          =1;SEG17COM2=1;SEG17COM1=1;SEG17COM3=1;SEG17COM
      +                          0=1;
  1935  0457  1703               	bsf	3,6	;RP2=1, select bank2
  1936  0458  141B               	bsf	27,0
  1937  0459  1415               	bsf	21,0
  1938  045A  1418               	bsf	24,0
  1939  045B  1498               	bsf	24,1
  1940  045C  1495               	bsf	21,1
  1941  045D  149B               	bsf	27,1
  1942  045E  1492               	bsf	18,1
  1943                           ;main.c: 472: SEG16COM0=SEG15COM0=SEG15COM3=SEG
      +                          15COM1=SEG15COM2=SEG11COM2=SEG11COM1=SEG11COM3=
      +                          SEG11COM0=SEG10COM0=SEG10COM3=SEG10COM1=SEG10CO
      +                          M2=0;
  1944  045F  1117               	bcf	23,2
  1945  0460  1114               	bcf	20,2
  1946  0461  111A               	bcf	26,2
  1947  0462  1111               	bcf	17,2
  1948  0463  1191               	bcf	17,3
  1949  0464  119A               	bcf	26,3
  1950  0465  1194               	bcf	20,3
  1951  0466  1197               	bcf	23,3
  1952  0467  1397               	bcf	23,7
  1953  0468  1394               	bcf	20,7
  1954  0469  139A               	bcf	26,7
  1955  046A  1391               	bcf	17,7
  1956  046B  1012               	bcf	18,0
  1957                           ;main.c: 473: break;
  1958  046C  0008               	return
  1959                           ;main.c: 474: case 8:
  1960  046D                     l115:
  1961                           ;main.c: 475: SEG16COM0=1;SEG16COM3=1;SEG16COM1
      +                          =1;SEG16COM2=1;SEG17COM2=1;SEG17COM1=1;SEG17COM
      +                          3=1;SEG17COM0=1;
  1962  046D  1703               	bsf	3,6	;RP2=1, select bank2
  1963  046E  1412               	bsf	18,0
  1964  046F  141B               	bsf	27,0
  1965  0470  1415               	bsf	21,0
  1966  0471  1418               	bsf	24,0
  1967  0472  1498               	bsf	24,1
  1968  0473  1495               	bsf	21,1
  1969  0474  149B               	bsf	27,1
  1970  0475  1492               	bsf	18,1
  1971                           ;main.c: 476: SEG15COM0=SEG15COM3=SEG15COM1=SEG
      +                          15COM2=SEG11COM2=SEG11COM1=SEG11COM3=SEG11COM0=
      +                          SEG10COM0=SEG10COM3=SEG10COM1=SEG10COM2=0;
  1972  0476  1117               	bcf	23,2
  1973  0477  1114               	bcf	20,2
  1974  0478  111A               	bcf	26,2
  1975  0479  1111               	bcf	17,2
  1976  047A  1191               	bcf	17,3
  1977  047B  119A               	bcf	26,3
  1978  047C  1194               	bcf	20,3
  1979  047D  1197               	bcf	23,3
  1980  047E  1397               	bcf	23,7
  1981  047F  1394               	bcf	20,7
  1982  0480  139A               	bcf	26,7
  1983  0481  1391               	bcf	17,7
  1984                           ;main.c: 477: break;
  1985  0482  0008               	return
  1986                           ;main.c: 478: case 9:
  1987  0483                     l116:
  1988                           ;main.c: 479: SEG15COM0=1;SEG16COM0=1;SEG16COM3
      +                          =1;SEG16COM1=1;SEG16COM2=1;SEG17COM2=1;SEG17COM
      +                          1=1;SEG17COM3=1;SEG17COM0=1;
  1989  0483  1703               	bsf	3,6	;RP2=1, select bank2
  1990  0484  1791               	bsf	17,7
  1991  0485  1412               	bsf	18,0
  1992  0486  141B               	bsf	27,0
  1993  0487  1415               	bsf	21,0
  1994  0488  1418               	bsf	24,0
  1995  0489  1498               	bsf	24,1
  1996  048A  1495               	bsf	21,1
  1997  048B  149B               	bsf	27,1
  1998  048C  1492               	bsf	18,1
  1999                           ;main.c: 480: SEG15COM3=SEG15COM1=SEG15COM2=SEG
      +                          11COM2=SEG11COM1=SEG11COM3=SEG11COM0=SEG10COM0=
      +                          SEG10COM3=SEG10COM1=SEG10COM2=0;
  2000  048D  1117               	bcf	23,2
  2001  048E  1114               	bcf	20,2
  2002  048F  111A               	bcf	26,2
  2003  0490  1111               	bcf	17,2
  2004  0491  1191               	bcf	17,3
  2005  0492  119A               	bcf	26,3
  2006  0493  1194               	bcf	20,3
  2007  0494  1197               	bcf	23,3
  2008  0495  1397               	bcf	23,7
  2009  0496  1394               	bcf	20,7
  2010  0497  139A               	bcf	26,7
  2011                           ;main.c: 481: break;
  2012  0498  0008               	return
  2013                           ;main.c: 482: case 10:
  2014  0499                     l117:
  2015                           ;main.c: 483: SEG15COM3=1;SEG15COM0=1;SEG16COM0
      +                          =1;SEG16COM3=1;SEG16COM1=1;SEG16COM2=1;SEG17COM
      +                          2=1;SEG17COM1=1;SEG17COM3=1;SEG17COM0=1;
  2016  0499  1703               	bsf	3,6	;RP2=1, select bank2
  2017  049A  179A               	bsf	26,7
  2018  049B  1791               	bsf	17,7
  2019  049C  1412               	bsf	18,0
  2020  049D  141B               	bsf	27,0
  2021  049E  1415               	bsf	21,0
  2022  049F  1418               	bsf	24,0
  2023  04A0  1498               	bsf	24,1
  2024  04A1  1495               	bsf	21,1
  2025  04A2  149B               	bsf	27,1
  2026  04A3  1492               	bsf	18,1
  2027                           ;main.c: 484: SEG15COM1=SEG15COM2=SEG11COM2=SEG
      +                          11COM1=SEG11COM3=SEG11COM0=SEG10COM0=SEG10COM3=
      +                          SEG10COM1=SEG10COM2=0;
  2028  04A4  1117               	bcf	23,2
  2029  04A5  1114               	bcf	20,2
  2030  04A6  111A               	bcf	26,2
  2031  04A7  1111               	bcf	17,2
  2032  04A8  1191               	bcf	17,3
  2033  04A9  119A               	bcf	26,3
  2034  04AA  1194               	bcf	20,3
  2035  04AB  1197               	bcf	23,3
  2036  04AC  1397               	bcf	23,7
  2037  04AD  1394               	bcf	20,7
  2038                           ;main.c: 485: break;
  2039  04AE  0008               	return
  2040                           ;main.c: 486: case 11:
  2041  04AF                     l118:
  2042                           ;main.c: 487: SEG15COM1=1;SEG15COM3=1;SEG15COM0
      +                          =1;SEG16COM0=1;SEG16COM3=1;SEG16COM1=1;SEG16COM
      +                          2=1;SEG17COM2=1;SEG17COM1=1;SEG17COM3=1;SEG17CO
      +                          M0=1;
  2043  04AF  1703               	bsf	3,6	;RP2=1, select bank2
  2044  04B0  1794               	bsf	20,7
  2045  04B1  179A               	bsf	26,7
  2046  04B2  1791               	bsf	17,7
  2047  04B3  1412               	bsf	18,0
  2048  04B4  141B               	bsf	27,0
  2049  04B5  1415               	bsf	21,0
  2050  04B6  1418               	bsf	24,0
  2051  04B7  1498               	bsf	24,1
  2052  04B8  1495               	bsf	21,1
  2053  04B9  149B               	bsf	27,1
  2054  04BA  1492               	bsf	18,1
  2055                           ;main.c: 488: SEG15COM2=SEG11COM2=SEG11COM1=SEG
      +                          11COM3=SEG11COM0=SEG10COM0=SEG10COM3=SEG10COM1=
      +                          SEG10COM2=0;
  2056  04BB  1117               	bcf	23,2
  2057  04BC  1114               	bcf	20,2
  2058  04BD  111A               	bcf	26,2
  2059  04BE  1111               	bcf	17,2
  2060  04BF  1191               	bcf	17,3
  2061  04C0  119A               	bcf	26,3
  2062  04C1  1194               	bcf	20,3
  2063  04C2  1197               	bcf	23,3
  2064  04C3  1397               	bcf	23,7
  2065                           ;main.c: 489: break;
  2066  04C4  0008               	return
  2067                           ;main.c: 490: case 12:
  2068  04C5                     l119:
  2069                           ;main.c: 491: SEG15COM2=1;SEG15COM1=1;SEG15COM3
      +                          =1;SEG15COM0=1;SEG16COM0=1;SEG16COM3=1;SEG16COM
      +                          1=1;SEG16COM2=1;SEG17COM2=1;SEG17COM1=1;SEG17CO
      +                          M3=1;SEG17COM0=1;
  2070  04C5  1703               	bsf	3,6	;RP2=1, select bank2
  2071  04C6  1797               	bsf	23,7
  2072  04C7  1794               	bsf	20,7
  2073  04C8  179A               	bsf	26,7
  2074  04C9  1791               	bsf	17,7
  2075  04CA  1412               	bsf	18,0
  2076  04CB  141B               	bsf	27,0
  2077  04CC  1415               	bsf	21,0
  2078  04CD  1418               	bsf	24,0
  2079  04CE  1498               	bsf	24,1
  2080  04CF  1495               	bsf	21,1
  2081  04D0  149B               	bsf	27,1
  2082  04D1  1492               	bsf	18,1
  2083                           ;main.c: 492: SEG11COM2=SEG11COM1=SEG11COM3=SEG
      +                          11COM0=SEG10COM0=SEG10COM3=SEG10COM1=SEG10COM2=
      +                          0;
  2084  04D2  1117               	bcf	23,2
  2085  04D3  1114               	bcf	20,2
  2086  04D4  111A               	bcf	26,2
  2087  04D5  1111               	bcf	17,2
  2088  04D6  1191               	bcf	17,3
  2089  04D7  119A               	bcf	26,3
  2090  04D8  1194               	bcf	20,3
  2091  04D9  1197               	bcf	23,3
  2092                           ;main.c: 493: break;
  2093  04DA  0008               	return
  2094                           ;main.c: 494: case 13:
  2095  04DB                     l120:
  2096                           ;main.c: 495: SEG11COM2=1;SEG15COM2=1;SEG15COM1
      +                          =1;SEG15COM3=1;SEG15COM0=1;SEG16COM0=1;SEG16COM
      +                          3=1;SEG16COM1=1;SEG16COM2=1;SEG17COM2=1;SEG17CO
      +                          M1=1;SEG17COM3=1;SEG17COM0=1;
  2097  04DB  1703               	bsf	3,6	;RP2=1, select bank2
  2098  04DC  1597               	bsf	23,3
  2099  04DD  1797               	bsf	23,7
  2100  04DE  1794               	bsf	20,7
  2101  04DF  179A               	bsf	26,7
  2102  04E0  1791               	bsf	17,7
  2103  04E1  1412               	bsf	18,0
  2104  04E2  141B               	bsf	27,0
  2105  04E3  1415               	bsf	21,0
  2106  04E4  1418               	bsf	24,0
  2107  04E5  1498               	bsf	24,1
  2108  04E6  1495               	bsf	21,1
  2109  04E7  149B               	bsf	27,1
  2110  04E8  1492               	bsf	18,1
  2111                           ;main.c: 496: SEG11COM1=SEG11COM3=SEG11COM0=SEG
      +                          10COM0=SEG10COM3=SEG10COM1=SEG10COM2=0;
  2112  04E9  1117               	bcf	23,2
  2113  04EA  1114               	bcf	20,2
  2114  04EB  111A               	bcf	26,2
  2115  04EC  1111               	bcf	17,2
  2116  04ED  1191               	bcf	17,3
  2117  04EE  119A               	bcf	26,3
  2118  04EF  1194               	bcf	20,3
  2119                           ;main.c: 497: break;
  2120  04F0  0008               	return
  2121                           ;main.c: 498: case 14:
  2122  04F1                     l121:
  2123                           ;main.c: 499: SEG11COM1=1;SEG11COM2=1;SEG15COM2
      +                          =1;SEG15COM1=1;SEG15COM3=1;SEG15COM0=1;SEG16COM
      +                          0=1;SEG16COM3=1;SEG16COM1=1;SEG16COM2=1;SEG17CO
      +                          M2=1;SEG17COM1=1;SEG17COM3=1;SEG17COM0=1;
  2124  04F1  1703               	bsf	3,6	;RP2=1, select bank2
  2125  04F2  1594               	bsf	20,3
  2126  04F3  1597               	bsf	23,3
  2127  04F4  1797               	bsf	23,7
  2128  04F5  1794               	bsf	20,7
  2129  04F6  179A               	bsf	26,7
  2130  04F7  1791               	bsf	17,7
  2131  04F8  1412               	bsf	18,0
  2132  04F9  141B               	bsf	27,0
  2133  04FA  1415               	bsf	21,0
  2134  04FB  1418               	bsf	24,0
  2135  04FC  1498               	bsf	24,1
  2136  04FD  1495               	bsf	21,1
  2137  04FE  149B               	bsf	27,1
  2138  04FF  1492               	bsf	18,1
  2139                           ;main.c: 500: SEG11COM3=SEG11COM0=SEG10COM0=SEG
      +                          10COM3=SEG10COM1=SEG10COM2=0;
  2140  0500  1117               	bcf	23,2
  2141  0501  1114               	bcf	20,2
  2142  0502  111A               	bcf	26,2
  2143  0503  1111               	bcf	17,2
  2144  0504  1191               	bcf	17,3
  2145  0505  119A               	bcf	26,3
  2146                           ;main.c: 501: break;
  2147  0506  0008               	return
  2148                           ;main.c: 502: case 15:
  2149  0507                     l122:
  2150                           ;main.c: 503: SEG11COM3=1;SEG11COM1=1;SEG11COM2
      +                          =1;SEG15COM2=1;SEG15COM1=1;SEG15COM3=1;SEG15COM
      +                          0=1;SEG16COM0=1;SEG16COM3=1;SEG16COM1=1;SEG16CO
      +                          M2=1;SEG17COM2=1;SEG17COM1=1;SEG17COM3=1;SEG17C
      +                          OM0=1;
  2151  0507  1703               	bsf	3,6	;RP2=1, select bank2
  2152  0508  159A               	bsf	26,3
  2153  0509  1594               	bsf	20,3
  2154  050A  1597               	bsf	23,3
  2155  050B  1797               	bsf	23,7
  2156  050C  1794               	bsf	20,7
  2157  050D  179A               	bsf	26,7
  2158  050E  1791               	bsf	17,7
  2159  050F  1412               	bsf	18,0
  2160  0510  141B               	bsf	27,0
  2161  0511  1415               	bsf	21,0
  2162  0512  1418               	bsf	24,0
  2163  0513  1498               	bsf	24,1
  2164  0514  1495               	bsf	21,1
  2165  0515  149B               	bsf	27,1
  2166  0516  1492               	bsf	18,1
  2167                           ;main.c: 504: SEG11COM0=SEG10COM0=SEG10COM3=SEG
      +                          10COM1=SEG10COM2=0;
  2168  0517  1117               	bcf	23,2
  2169  0518  1114               	bcf	20,2
  2170  0519  111A               	bcf	26,2
  2171  051A  1111               	bcf	17,2
  2172  051B  1191               	bcf	17,3
  2173                           ;main.c: 505: break;
  2174  051C  0008               	return
  2175                           ;main.c: 506: case 16:
  2176  051D                     l123:
  2177                           ;main.c: 507: SEG11COM0=1;SEG11COM3=1;SEG11COM1
      +                          =1;SEG11COM2=1;SEG15COM2=1;SEG15COM1=1;SEG15COM
      +                          3=1;SEG15COM0=1;SEG16COM0=1;SEG16COM3=1;SEG16CO
      +                          M1=1;SEG16COM2=1;SEG17COM2=1;SEG17COM1=1;SEG17C
      +                          OM3=1;SEG17COM0=1;
  2178  051D  1703               	bsf	3,6	;RP2=1, select bank2
  2179  051E  1591               	bsf	17,3
  2180  051F  159A               	bsf	26,3
  2181  0520  1594               	bsf	20,3
  2182  0521  1597               	bsf	23,3
  2183  0522  1797               	bsf	23,7
  2184  0523  1794               	bsf	20,7
  2185  0524  179A               	bsf	26,7
  2186  0525  1791               	bsf	17,7
  2187  0526  1412               	bsf	18,0
  2188  0527  141B               	bsf	27,0
  2189  0528  1415               	bsf	21,0
  2190  0529  1418               	bsf	24,0
  2191  052A  1498               	bsf	24,1
  2192  052B  1495               	bsf	21,1
  2193  052C  149B               	bsf	27,1
  2194  052D  1492               	bsf	18,1
  2195                           ;main.c: 508: SEG10COM0=SEG10COM3=SEG10COM1=SEG
      +                          10COM2=0;
  2196  052E  1117               	bcf	23,2
  2197  052F  1114               	bcf	20,2
  2198  0530  111A               	bcf	26,2
  2199  0531  1111               	bcf	17,2
  2200                           ;main.c: 509: break;
  2201  0532  0008               	return
  2202                           ;main.c: 510: case 17:
  2203  0533                     l124:
  2204                           ;main.c: 511: SEG10COM0=1;SEG11COM0=1;SEG11COM3
      +                          =1;SEG11COM1=1;SEG11COM2=1;SEG15COM2=1;SEG15COM
      +                          1=1;SEG15COM3=1;SEG15COM0=1;SEG16COM0=1;SEG16CO
      +                          M3=1;SEG16COM1=1;SEG16COM2=1;SEG17COM2=1;SEG17C
      +                          OM1=1;SEG17COM3=1;SEG17COM0=1;
  2205  0533  1703               	bsf	3,6	;RP2=1, select bank2
  2206  0534  1511               	bsf	17,2
  2207  0535  1591               	bsf	17,3
  2208  0536  159A               	bsf	26,3
  2209  0537  1594               	bsf	20,3
  2210  0538  1597               	bsf	23,3
  2211  0539  1797               	bsf	23,7
  2212  053A  1794               	bsf	20,7
  2213  053B  179A               	bsf	26,7
  2214  053C  1791               	bsf	17,7
  2215  053D  1412               	bsf	18,0
  2216  053E  141B               	bsf	27,0
  2217  053F  1415               	bsf	21,0
  2218  0540  1418               	bsf	24,0
  2219  0541  1498               	bsf	24,1
  2220  0542  1495               	bsf	21,1
  2221  0543  149B               	bsf	27,1
  2222  0544  1492               	bsf	18,1
  2223                           ;main.c: 512: SEG10COM3=SEG10COM1=SEG10COM2=0;
  2224  0545  1117               	bcf	23,2
  2225  0546  1114               	bcf	20,2
  2226  0547  111A               	bcf	26,2
  2227                           ;main.c: 513: break;
  2228  0548  0008               	return
  2229                           ;main.c: 514: case 18:
  2230  0549                     l125:
  2231                           ;main.c: 515: SEG10COM3=1;SEG10COM0=1;SEG11COM0
      +                          =1;SEG11COM3=1;SEG11COM1=1;SEG11COM2=1;SEG15COM
      +                          2=1;SEG15COM1=1;SEG15COM3=1;SEG15COM0=1;SEG16CO
      +                          M0=1;SEG16COM3=1;SEG16COM1=1;SEG16COM2=1;SEG17C
      +                          OM2=1;SEG17COM1=1;SEG17COM3=1;SEG17COM0=1;
  2232  0549  1703               	bsf	3,6	;RP2=1, select bank2
  2233  054A  151A               	bsf	26,2
  2234  054B  1511               	bsf	17,2
  2235  054C  1591               	bsf	17,3
  2236  054D  159A               	bsf	26,3
  2237  054E  1594               	bsf	20,3
  2238  054F  1597               	bsf	23,3
  2239  0550  1797               	bsf	23,7
  2240  0551  1794               	bsf	20,7
  2241  0552  179A               	bsf	26,7
  2242  0553  1791               	bsf	17,7
  2243  0554  1412               	bsf	18,0
  2244  0555  141B               	bsf	27,0
  2245  0556  1415               	bsf	21,0
  2246  0557  1418               	bsf	24,0
  2247  0558  1498               	bsf	24,1
  2248  0559  1495               	bsf	21,1
  2249  055A  149B               	bsf	27,1
  2250  055B  1492               	bsf	18,1
  2251                           ;main.c: 516: SEG10COM1=SEG10COM2=0;
  2252  055C  1117               	bcf	23,2
  2253  055D  1114               	bcf	20,2
  2254                           ;main.c: 517: break;
  2255  055E  0008               	return
  2256                           ;main.c: 518: case 19:
  2257  055F                     l126:
  2258                           ;main.c: 519: SEG10COM1=1;SEG10COM3=1;SEG10COM0
      +                          =1;SEG11COM0=1;SEG11COM3=1;SEG11COM1=1;SEG11COM
      +                          2=1;SEG15COM2=1;SEG15COM1=1;SEG15COM3=1;SEG15CO
      +                          M0=1;SEG16COM0=1;SEG16COM3=1;SEG16COM1=1;SEG16C
      +                          OM2=1;SEG17COM2=1;SEG17COM1=1;SEG17COM3=1;SEG17
      +                          COM0=1;
  2259  055F  1703               	bsf	3,6	;RP2=1, select bank2
  2260  0560  1514               	bsf	20,2
  2261  0561  151A               	bsf	26,2
  2262  0562  1511               	bsf	17,2
  2263  0563  1591               	bsf	17,3
  2264  0564  159A               	bsf	26,3
  2265  0565  1594               	bsf	20,3
  2266  0566  1597               	bsf	23,3
  2267  0567  1797               	bsf	23,7
  2268  0568  1794               	bsf	20,7
  2269  0569  179A               	bsf	26,7
  2270  056A  1791               	bsf	17,7
  2271  056B  1412               	bsf	18,0
  2272  056C  141B               	bsf	27,0
  2273  056D  1415               	bsf	21,0
  2274  056E  1418               	bsf	24,0
  2275  056F  1498               	bsf	24,1
  2276  0570  1495               	bsf	21,1
  2277  0571  149B               	bsf	27,1
  2278  0572  1492               	bsf	18,1
  2279                           ;main.c: 520: SEG10COM2=0;
  2280  0573  1117               	bcf	23,2
  2281                           ;main.c: 521: break;
  2282  0574  0008               	return
  2283                           ;main.c: 522: case 20:
  2284  0575                     l127:
  2285                           ;main.c: 523: SEG10COM2=1;SEG10COM1=1;SEG10COM3
      +                          =1;SEG10COM0=1;SEG11COM0=1;SEG11COM3=1;SEG11COM
      +                          1=1;SEG11COM2=1;SEG15COM2=1;SEG15COM1=1;SEG15CO
      +                          M3=1;SEG15COM0=1;SEG16COM0=1;SEG16COM3=1;SEG16C
      +                          OM1=1;SEG16COM2=1;SEG17COM2=1;SEG17COM1=1;SEG17
      +                          COM3=1;SEG17COM0=1;
  2286  0575  1703               	bsf	3,6	;RP2=1, select bank2
  2287  0576  1517               	bsf	23,2
  2288  0577  1514               	bsf	20,2
  2289  0578  151A               	bsf	26,2
  2290  0579  1511               	bsf	17,2
  2291  057A  1591               	bsf	17,3
  2292  057B  159A               	bsf	26,3
  2293  057C  1594               	bsf	20,3
  2294  057D  1597               	bsf	23,3
  2295  057E  1797               	bsf	23,7
  2296  057F  1794               	bsf	20,7
  2297  0580  179A               	bsf	26,7
  2298  0581  1791               	bsf	17,7
  2299  0582  1412               	bsf	18,0
  2300  0583  141B               	bsf	27,0
  2301  0584  1415               	bsf	21,0
  2302  0585  1418               	bsf	24,0
  2303  0586  1498               	bsf	24,1
  2304  0587  1495               	bsf	21,1
  2305  0588  149B               	bsf	27,1
  2306  0589  1492               	bsf	18,1
  2307                           ;main.c: 524: break;
  2308  058A  0008               	return
  2309  058B                     l106:
  2310  058B  0870               	movf	??_displayBars,w
  2311  058C  3A00               	xorlw	0
  2312  058D  1903               	btfsc	3,2
  2313  058E  2BBD               	goto	l107
  2314  058F  3A01               	xorlw	1
  2315  0590  1903               	btfsc	3,2
  2316  0591  2BD3               	goto	l108
  2317  0592  3A03               	xorlw	3
  2318  0593  1903               	btfsc	3,2
  2319  0594  2BE9               	goto	l109
  2320  0595  3A01               	xorlw	1
  2321  0596  1903               	btfsc	3,2
  2322  0597  2BFF               	goto	l110
  2323  0598  3A07               	xorlw	7
  2324  0599  1903               	btfsc	3,2
  2325  059A  2C15               	goto	l111
  2326  059B  3A01               	xorlw	1
  2327  059C  1903               	btfsc	3,2
  2328  059D  2C2B               	goto	l112
  2329  059E  3A03               	xorlw	3
  2330  059F  1903               	btfsc	3,2
  2331  05A0  2C41               	goto	l113
  2332  05A1  3A01               	xorlw	1
  2333  05A2  1903               	btfsc	3,2
  2334  05A3  2C57               	goto	l114
  2335  05A4  3A0F               	xorlw	15
  2336  05A5  1903               	btfsc	3,2
  2337  05A6  2C6D               	goto	l115
  2338  05A7  3A01               	xorlw	1
  2339  05A8  1903               	btfsc	3,2
  2340  05A9  2C83               	goto	l116
  2341  05AA  3A03               	xorlw	3
  2342  05AB  1903               	btfsc	3,2
  2343  05AC  2C99               	goto	l117
  2344  05AD  3A01               	xorlw	1
  2345  05AE  1903               	btfsc	3,2
  2346  05AF  2CAF               	goto	l118
  2347  05B0  3A07               	xorlw	7
  2348  05B1  1903               	btfsc	3,2
  2349  05B2  2CC5               	goto	l119
  2350  05B3  3A01               	xorlw	1
  2351  05B4  1903               	btfsc	3,2
  2352  05B5  2CDB               	goto	l120
  2353  05B6  3A03               	xorlw	3
  2354  05B7  1903               	btfsc	3,2
  2355  05B8  2CF1               	goto	l121
  2356  05B9  3A01               	xorlw	1
  2357  05BA  1903               	btfsc	3,2
  2358  05BB  2D07               	goto	l122
  2359  05BC  3A1F               	xorlw	31
  2360  05BD  1903               	btfsc	3,2
  2361  05BE  2D1D               	goto	l123
  2362  05BF  3A01               	xorlw	1
  2363  05C0  1903               	btfsc	3,2
  2364  05C1  2D33               	goto	l124
  2365  05C2  3A03               	xorlw	3
  2366  05C3  1903               	btfsc	3,2
  2367  05C4  2D49               	goto	l125
  2368  05C5  3A01               	xorlw	1
  2369  05C6  1903               	btfsc	3,2
  2370  05C7  2D5F               	goto	l126
  2371  05C8  3A07               	xorlw	7
  2372  05C9  1D03               	btfss	3,2
  2373  05CA  0008               	return
  2374  05CB  2D75               	goto	l127
  2375                           ;main.c: 526: }
  2376                           ; =============== function _displayBars ends ==
      +                          =============
  2377  05CC                     __end_of_displayBars:
  2378                           ; *************** function ___wmul ************
      +                          ***
  2379                           ; Defined at:
  2380                           ;		line 3 in file "C:\Programmi\HI-TECH Softwar
      +                          e\PICC\PRO\9.60\sources\wmul.c"
  2381                           ; Parameters:
  2382                           ;		multiplier  	offs:   0	type: unsigned int 
  2383                           ;		multiplicand	offs:   2	type: unsigned int 
  2384                           ; Auto variables:
  2385                           ;		product     	       	type: unsigned int 
  2386                           ; Return value:
  2387                           ;		type: unsigned int 
  2388                           ;		size: 2
  2389                           ; Registers used:
  2390                           ;		wreg, status,2, status,0
  2391                           ; Tracked objects:
  2392                           ;		On entry : 0/0
  2393                           ;		On exit  : 0/0
  2394                           ;		Unchanged: FFFFFFFF/0
  2395                           ; Data sizes:
  2396                           ;		Autos:    2
  2397                           ;		Params:   4
  2398                           ;		Temp:     0
  2399                           ;		Total:    6
  2400                           ; This function calls:
  2401                           ;		Nothing
  2402                           ; This function is called by:
  2403                           ;		_displayVoltage
  2404                           ;		_display4dig
  2405                           ;		_getTemperature
  2406                           ;		_displayTemp
  2407                           ; This function uses a non-reentrant model
  2408                           ; 
  2409  05CC                     ___wmul:
  2410                           ; Regs used in ___wmul: [wreg+status,2+status,0
      +                          ]
  2411  05CC  01F7               	clrf	??___wmul
  2412  05CD  01F8               	clrf	??___wmul+1
  2413  05CE                     l154:
  2414  05CE  1C73               	btfss	?___wmul,0
  2415  05CF  2DD6               	goto	l155
  2416  05D0  0875               	movf	?___wmul+2,w
  2417  05D1  07F7               	addwf	??___wmul,f
  2418  05D2  1803               	btfsc	3,0
  2419  05D3  0AF8               	incf	??___wmul+1,f
  2420  05D4  0876               	movf	?___wmul+3,w
  2421  05D5  07F8               	addwf	??___wmul+1,f
  2422  05D6                     l155:
  2423  05D6  1003               	bcf	3,0
  2424  05D7  0DF5               	rlf	?___wmul+2,f
  2425  05D8  0DF6               	rlf	?___wmul+3,f
  2426  05D9  1003               	bcf	3,0
  2427  05DA  0CF4               	rrf	?___wmul+1,f
  2428  05DB  0CF3               	rrf	?___wmul,f
  2429  05DC  0874               	movf	(?___wmul+1)& (0+127),w
  2430  05DD  0473               	iorwf	?___wmul& (0+127),w
  2431  05DE  1D03               	btfss	3,2
  2432  05DF  2DCE               	goto	l154
  2433  05E0  0878               	movf	??___wmul+1,w
  2434  05E1  00F4               	movwf	?___wmul+1
  2435  05E2  0877               	movf	??___wmul,w
  2436  05E3  00F3               	movwf	?___wmul
  2437  05E4  0008               	return
  2438                           ; =============== function ___wmul ends =======
      +                          ========
  2439  05E5                     __end_of___wmul:
  2440                           ; *************** function _delay *************
      +                          **
  2441                           ; Defined at:
  2442                           ;		line 579 in file "K:\PRODEV\IMAGE\Samples\Mi
      +                          crochip\Eval Boards\PICDEM LCD with PIC16F917\m
      +                          ain.c"
  2443                           ; Parameters:
  2444                           ;		None
  2445                           ; Auto variables:
  2446                           ;		i           	       	type: unsigned int 
  2447                           ; Return value:
  2448                           ;		type: void 
  2449                           ;		size: 0
  2450                           ; Registers used:
  2451                           ;		wreg
  2452                           ; Tracked objects:
  2453                           ;		On entry : 100/200
  2454                           ;		On exit  : 100/200
  2455                           ;		Unchanged: FFFFFFFF/0
  2456                           ; Data sizes:
  2457                           ;		Autos:    2
  2458                           ;		Params:   0
  2459                           ;		Temp:     0
  2460                           ;		Total:    2
  2461                           ; This function calls:
  2462                           ;		Nothing
  2463                           ; This function is called by:
  2464                           ;		_main
  2465                           ;		_displayVoltage
  2466                           ;		_getTemperature
  2467                           ; This function uses a non-reentrant model
  2468                           ; 
  2469                           ;main.c: 579: void delay(){
  2470  05E5                     _delay:
  2471                           ; Regs used in _delay: [wreg]
  2472                           ;main.c: 580: unsigned int i=16000;
  2473  05E5  3080               	movlw	128
  2474  05E6  00F0               	movwf	??_delay
  2475  05E7  303E               	movlw	62
  2476  05E8  00F1               	movwf	??_delay+1
  2477                           ;main.c: 582: while(i--);
  2478  05E9                     l137:
  2479  05E9  3001               	movlw	1
  2480  05EA  02F0               	subwf	??_delay,f
  2481  05EB  1C03               	btfss	3,0
  2482  05EC  03F1               	decf	??_delay+1,f
  2483  05ED  0A70               	incf	??_delay& (0+127),w
  2484  05EE  1903               	btfsc	3,2
  2485  05EF  0A71               	incf	(??_delay+1)& (0+127),w
  2486  05F0  1903               	btfsc	3,2
  2487  05F1  0008               	return
  2488  05F2  2DE9               	goto	l137
  2489                           ;main.c: 584: }
  2490                           ; =============== function _delay ends ========
      +                          =======
  2491  05F3                     __end_of_delay:
  2492                           ; *************** function _getTemperature ****
      +                          ***********
  2493                           ; Defined at:
  2494                           ;		line 586 in file "K:\PRODEV\IMAGE\Samples\Mi
      +                          crochip\Eval Boards\PICDEM LCD with PIC16F917\m
      +                          ain.c"
  2495                           ; Parameters:
  2496                           ;		None
  2497                           ; Auto variables:
  2498                           ;		None
  2499                           ; Return value:
  2500                           ;		type: void 
  2501                           ;		size: 0
  2502                           ; Registers used:
  2503                           ;		wreg, fsr, status,2, status,0, pclath, cstac
      +                          k
  2504                           ; Tracked objects:
  2505                           ;		On entry : 300/200
  2506                           ;		On exit  : 300/200
  2507                           ;		Unchanged: FFFFFCFF/0
  2508                           ; Data sizes:
  2509                           ;		Autos:    0
  2510                           ;		Params:   0
  2511                           ;		Temp:     0
  2512                           ;		Total:    0
  2513                           ; This function calls:
  2514                           ;		_delay
  2515                           ;		___wmul
  2516                           ;		___lwdiv
  2517                           ;		_displayTemp
  2518                           ; This function is called by:
  2519                           ;		_main
  2520                           ; This function uses a non-reentrant model
  2521                           ; 
  2522                           ;main.c: 586: void getTemperature(void){
  2523  05F3                     _getTemperature:
  2524                           ; Regs used in _getTemperature: [wreg+fsr+statu
      +                          s,2+status,0+pclath+cstack]
  2525                           ;main.c: 588: CHS0 = 1;
  2526  05F3  1303               	bcf	3,6	;RP2=0, select bank0
  2527  05F4  151F               	bsf	31,2
  2528                           ;main.c: 590: delay();
  2529  05F5  25E5               	fcall	_delay
  2530                           ;main.c: 591: delay();
  2531  05F6  25E5               	fcall	_delay
  2532                           ;main.c: 593: GODONE = 1;
  2533  05F7  149F               	bsf	31,1
  2534                           ;main.c: 594: while (GODONE);
  2535  05F8                     l141:
  2536  05F8  189F               	btfsc	31,1
  2537  05F9  2DF8               	goto	l141
  2538                           ;main.c: 595: boardTemp = (ADRESH << 8) + ADRES
      +                          L;
  2539  05FA  1683               	bsf	3,5	;RP0=1, select bank1
  2540  05FB  1283               	bcf	3,5	;RP0=0, select bank0
  2541  05FC  081E               	movf	30,w	;volatile
  2542  05FD  00E8               	movwf	104
  2543  05FE  1683               	bsf	3,5	;RP0=1, select bank1
  2544  05FF  081E               	movf	30,w	;volatile
  2545  0600  1283               	bcf	3,5	;RP0=0, select bank0
  2546  0601  00E7               	movwf	103
  2547                           ;main.c: 596: boardTemp = 36 * (boardTemp - 303
      +                          ) / 10;
  2548  0602  3024               	movlw	36
  2549  0603  00F5               	movwf	(?___wmul+2)& (0+127)
  2550  0604  01F6               	clrf	(?___wmul+3)& (0+127)
  2551  0605  0867               	movf	103,w
  2552  0606  3ED1               	addlw	209
  2553  0607  00F3               	movwf	?___wmul
  2554  0608  0868               	movf	104,w
  2555  0609  1803               	btfsc	3,0
  2556  060A  3E01               	addlw	1
  2557  060B  3EFE               	addlw	254
  2558  060C  00F4               	movwf	?___wmul+1
  2559  060D  25CC               	fcall	___wmul
  2560  060E  0874               	movf	?___wmul+1,w
  2561  060F  00F4               	movwf	?___lwdiv+1
  2562  0610  0873               	movf	?___wmul,w
  2563  0611  00F3               	movwf	?___lwdiv
  2564  0612  300A               	movlw	10
  2565  0613  00F5               	movwf	(?___lwdiv+2)& (0+127)
  2566  0614  01F6               	clrf	(?___lwdiv+3)& (0+127)
  2567  0615  22FC               	fcall	___lwdiv
  2568  0616  0874               	movf	?___lwdiv+1,w
  2569  0617  00E8               	movwf	104
  2570  0618  0873               	movf	?___lwdiv,w
  2571  0619  00E7               	movwf	103
  2572                           ;main.c: 597: displayTemp(boardTemp);
  2573  061A  0868               	movf	104,w
  2574  061B  00F1               	movwf	?_displayTemp+1
  2575  061C  0867               	movf	103,w
  2576  061D  00F0               	movwf	?_displayTemp
  2577  061E  2B7C               	ljmp	_displayTemp
  2578                           ;main.c: 598: }
  2579                           ; =============== function _getTemperature ends
      +                           ===============
  2580  061F                     __end_of_getTemperature:
  2581                           ; *************** function _displayVoltage ****
      +                          ***********
  2582                           ; Defined at:
  2583                           ;		line 545 in file "K:\PRODEV\IMAGE\Samples\Mi
      +                          crochip\Eval Boards\PICDEM LCD with PIC16F917\m
      +                          ain.c"
  2584                           ; Parameters:
  2585                           ;		None
  2586                           ; Auto variables:
  2587                           ;		None
  2588                           ; Return value:
  2589                           ;		type: void 
  2590                           ;		size: 0
  2591                           ; Registers used:
  2592                           ;		wreg, fsr, status,2, status,0, pclath, cstac
      +                          k
  2593                           ; Tracked objects:
  2594                           ;		On entry : 300/200
  2595                           ;		On exit  : 100/0
  2596                           ;		Unchanged: FFFFFCFF/0
  2597                           ; Data sizes:
  2598                           ;		Autos:    0
  2599                           ;		Params:   0
  2600                           ;		Temp:     0
  2601                           ;		Total:    0
  2602                           ; This function calls:
  2603                           ;		_delay
  2604                           ;		___wmul
  2605                           ;		___lwdiv
  2606                           ;		_display4dig
  2607                           ;		_displayBars
  2608                           ; This function is called by:
  2609                           ;		_main
  2610                           ; This function uses a non-reentrant model
  2611                           ; 
  2612                           ;main.c: 545: void displayVoltage(){
  2613  061F                     _displayVoltage:
  2614                           ; Regs used in _displayVoltage: [wreg+fsr+statu
      +                          s,2+status,0+pclath+cstack]
  2615                           ;main.c: 548: CHS0 = 0;
  2616  061F  1303               	bcf	3,6	;RP2=0, select bank0
  2617  0620  111F               	bcf	31,2
  2618                           ;main.c: 550: delay();
  2619  0621  25E5               	fcall	_delay
  2620                           ;main.c: 552: GODONE = 1;
  2621  0622  149F               	bsf	31,1
  2622                           ;main.c: 553: while (GODONE);
  2623  0623                     l132:
  2624  0623  189F               	btfsc	31,1
  2625  0624  2E23               	goto	l132
  2626                           ;main.c: 554: boardVoltage = (ADRESH << 8) + AD
      +                          RESL;
  2627  0625  1683               	bsf	3,5	;RP0=1, select bank1
  2628  0626  1283               	bcf	3,5	;RP0=0, select bank0
  2629  0627  081E               	movf	30,w	;volatile
  2630  0628  00EA               	movwf	106
  2631  0629  1683               	bsf	3,5	;RP0=1, select bank1
  2632  062A  081E               	movf	30,w	;volatile
  2633  062B  1283               	bcf	3,5	;RP0=0, select bank0
  2634  062C  00E9               	movwf	105
  2635                           ;main.c: 555: boardVoltage = boardVoltage * 30;
  2636  062D  301E               	movlw	30
  2637  062E  00F5               	movwf	(?___wmul+2)& (0+127)
  2638  062F  01F6               	clrf	(?___wmul+3)& (0+127)
  2639  0630  086A               	movf	106,w
  2640  0631  00F4               	movwf	?___wmul+1
  2641  0632  0869               	movf	105,w
  2642  0633  00F3               	movwf	?___wmul
  2643  0634  25CC               	fcall	___wmul
  2644  0635  0874               	movf	?___wmul+1,w
  2645  0636  00EA               	movwf	106
  2646  0637  0873               	movf	?___wmul,w
  2647  0638  00E9               	movwf	105
  2648                           ;main.c: 556: boardVoltage = boardVoltage / 10;
  2649  0639  300A               	movlw	10
  2650  063A  00F5               	movwf	(?___lwdiv+2)& (0+127)
  2651  063B  01F6               	clrf	(?___lwdiv+3)& (0+127)
  2652  063C  086A               	movf	106,w
  2653  063D  00F4               	movwf	?___lwdiv+1
  2654  063E  0869               	movf	105,w
  2655  063F  00F3               	movwf	?___lwdiv
  2656  0640  22FC               	fcall	___lwdiv
  2657  0641  0874               	movf	?___lwdiv+1,w
  2658  0642  00EA               	movwf	106
  2659  0643  0873               	movf	?___lwdiv,w
  2660  0644  00E9               	movwf	105
  2661                           ;main.c: 557: display4dig(boardVoltage);
  2662  0645  086A               	movf	106,w
  2663  0646  00F1               	movwf	?_display4dig+1
  2664  0647  0869               	movf	105,w
  2665  0648  00F0               	movwf	?_display4dig
  2666  0649  2326  120A  118A   	fcall	_display4dig
  2667                           ;main.c: 558: boardVoltage = boardVoltage / 150
      +                          ;
  2668  064C  3096               	movlw	150
  2669  064D  00F5               	movwf	(?___lwdiv+2)& (0+127)
  2670  064E  01F6               	clrf	(?___lwdiv+3)& (0+127)
  2671  064F  1283               	bcf	3,5	;RP0=0, select bank0
  2672  0650  1303               	bcf	3,6	;RP2=0, select bank0
  2673  0651  086A               	movf	106,w
  2674  0652  00F4               	movwf	?___lwdiv+1
  2675  0653  0869               	movf	105,w
  2676  0654  00F3               	movwf	?___lwdiv
  2677  0655  22FC               	fcall	___lwdiv
  2678  0656  0874               	movf	?___lwdiv+1,w
  2679  0657  00EA               	movwf	106
  2680  0658  0873               	movf	?___lwdiv,w
  2681  0659  00E9               	movwf	105
  2682                           ;main.c: 559: displayBars(boardVoltage);
  2683  065A  2BBB               	ljmp	_displayBars
  2684                           ;main.c: 560: }
  2685                           ; =============== function _displayVoltage ends
      +                           ===============
  2686  065B                     __end_of_displayVoltage:
  2687                           
  2688                           	psect	intrtext
  2689                           ; *************** function _ISR ***************
  2690                           ; Defined at:
  2691                           ;		line 73 in file "K:\PRODEV\IMAGE\Samples\Mic
      +                          rochip\Eval Boards\PICDEM LCD with PIC16F917\ma
      +                          in.c"
  2692                           ; Parameters:
  2693                           ;		None
  2694                           ; Auto variables:
  2695                           ;		None
  2696                           ; Return value:
  2697                           ;		type: void 
  2698                           ;		size: 0
  2699                           ; Registers used:
  2700                           ;		wreg, status,2, status,0
  2701                           ; Tracked objects:
  2702                           ;		On entry : 0/0
  2703                           ;		On exit  : 300/0
  2704                           ;		Unchanged: FFFFFCFF/0
  2705                           ; Data sizes:
  2706                           ;		Autos:    0
  2707                           ;		Params:   0
  2708                           ;		Temp:     2
  2709                           ;		Total:    2
  2710                           ; This function calls:
  2711                           ;		Nothing
  2712                           ; This function is called by:
  2713                           ;		Interrupt level 1
  2714                           ; This function uses a non-reentrant model
  2715                           ; 
  2716                           ;pic16f91x.h: 19: volatile unsigned char INDF @
      +                           0x00;
  2717                           ;pic16f91x.h: 20: volatile unsigned char TMR0 @
      +                           0x01;
  2718                           ;pic16f91x.h: 21: volatile unsigned char PCL @ 
      +                          0x02;
  2719                           ;pic16f91x.h: 22: volatile unsigned char STATUS
      +                           @ 0x03;
  2720                           ;pic16f91x.h: 23: unsigned char FSR @ 0x04;
  2721                           ;pic16f91x.h: 24: volatile unsigned char PORTA 
      +                          @ 0x05;
  2722                           ;pic16f91x.h: 25: volatile unsigned char PORTB 
      +                          @ 0x06;
  2723                           ;pic16f91x.h: 26: volatile unsigned char PORTC 
      +                          @ 0x07;
  2724                           ;pic16f91x.h: 28: volatile unsigned char PORTD 
      +                          @ 0x08;
  2725                           ;pic16f91x.h: 30: volatile unsigned char PORTE 
      +                          @ 0x09;
  2726  065B                     _ISR:
  2727                           ;main.c: 74: if(TMR1IF && TMR1IE){
  2728  065B  1283               	bcf	3,5	;RP0=0, select bank0
  2729  065C  1303               	bcf	3,6	;RP2=0, select bank0
  2730  065D  1C0C               	btfss	12,0
  2731  065E  2E7A               	goto	i1l2
  2732  065F  1683               	bsf	3,5	;RP0=1, select bank1
  2733  0660  1C0C               	btfss	12,0
  2734  0661  2E7A               	goto	i1l2
  2735                           ;main.c: 75: timeFlag = 1;
  2736  0662  1283               	bcf	3,5	;RP0=0, select bank0
  2737  0663  146F               	bsf	111,0
  2738                           ;main.c: 76: TMR1IF = 0;
  2739  0664  100C               	bcf	12,0
  2740                           ;main.c: 77: TMR1H =+ 0x80;
  2741  0665  3080               	movlw	128
  2742  0666  008F               	movwf	15	;volatile
  2743                           ;main.c: 78: seconds++;
  2744  0667  0AEB               	incf	107,f
  2745                           ;main.c: 79: if (seconds > 60){
  2746  0668  303D               	movlw	61
  2747  0669  026B               	subwf	107,w
  2748  066A  1C03               	btfss	3,0
  2749  066B  2E7A               	goto	i1l2
  2750                           ;main.c: 80: minutes++;
  2751  066C  0AED               	incf	109,f
  2752                           ;main.c: 81: seconds = 0;
  2753  066D  01EB               	clrf	107
  2754                           ;main.c: 82: if (minutes > 60){
  2755  066E  303D               	movlw	61
  2756  066F  026D               	subwf	109,w
  2757  0670  1C03               	btfss	3,0
  2758  0671  2E7A               	goto	i1l2
  2759                           ;main.c: 83: hours++;
  2760  0672  0AFD               	incf	125,f
  2761                           ;main.c: 84: minutes = 0;
  2762  0673  01ED               	clrf	109
  2763                           ;main.c: 85: if (hours >12){
  2764  0674  300D               	movlw	13
  2765  0675  027D               	subwf	125,w
  2766  0676  1C03               	btfss	3,0
  2767  0677  2E7A               	goto	i1l2
  2768                           ;main.c: 86: hours = 1;
  2769  0678  01FD               	clrf	125
  2770  0679  0AFD               	incf	125,f
  2771  067A                     i1l2:
  2772                           ;main.c: 87: }
  2773                           ;main.c: 88: }
  2774                           ;main.c: 89: }
  2775                           ;main.c: 90: }
  2776                           ;main.c: 92: if(RBIF && RBIE){
  2777  067A  1283               	bcf	3,5	;RP0=0, select bank0
  2778  067B  180B               	btfsc	11,0
  2779  067C  1D8B               	btfss	11,3
  2780  067D  2E89               	goto	i1l1
  2781                           ;main.c: 93: SW1 = 0;
  2782  067E  01E5               	clrf	101
  2783                           ;main.c: 94: SW2 = 0;
  2784  067F  01E6               	clrf	102
  2785                           ;main.c: 96: if(RB6==0){SW1=1;}
  2786  0680  1B06               	btfsc	6,6
  2787  0681  2E84               	goto	i1l7
  2788  0682  01E5               	clrf	101
  2789  0683  0AE5               	incf	101,f
  2790  0684                     i1l7:
  2791                           ;main.c: 97: if(RB7==0){SW2=1;}
  2792  0684  1B86               	btfsc	6,7
  2793  0685  2E88               	goto	i1l8
  2794  0686  01E6               	clrf	102
  2795  0687  0AE6               	incf	102,f
  2796  0688                     i1l8:
  2797                           ;main.c: 99: RBIF = 0;
  2798  0688  100B               	bcf	11,0
  2799                           ;main.c: 101: }
  2800                           ;main.c: 102: }
  2801  0689                     i1l1:
  2802  0689  087B               	movf	??_ISR+1,w
  2803  068A  008A               	movwf	10
  2804  068B  087A               	movf	??_ISR,w
  2805  068C  0083               	movwf	3
  2806  068D  0EFF               	swapf	127,f
  2807  068E  0E7F               	swapf	127,w
  2808  068F  0009               	retfie
  2809                           ; =============== function _ISR ends ==========
      +                          =====
  2810  0690                     __end_of_ISR:	;_boardTemp
  2811                           
  2812                           	psect	intentry
  2813                           ; Regs used in _ISR: [wreg+status,2+status,0]
  2814  0004                     interrupt_function:
  2815  0000                     saved_w	set	127
  2816  0004  00FF               	movwf	127
  2817  0005  0803               	movf	3,w
  2818  0006  00FA               	movwf	??_ISR
  2819  0007  080A               	movf	10,w
  2820  0008  00FB               	movwf	??_ISR+1
  2821  0009  120A  118A  2E5B   	ljmp	_ISR
  2822                           
  2823                           	psect	rbss_0
  2824                           ;	FNARG	___lwdiv,___wmul
  2825  0000                     _boardTemp	set	103	;_boardVoltage
  2826  0000                     _boardVoltage	set	105	;_SW1
  2827  0000                     _SW1	set	101	;_SW2
  2828  0000                     _SW2	set	102	;_minutes
  2829  0000                     _minutes	set	109	;_ones
  2830  0000                     _ones	set	110	;_seconds
  2831  0000                     _seconds	set	107	;_tens
  2832  0000                     _tens	set	108	;_timeFlag
  2833  0000                     _Mode	set	32
  2834  0000                     _OPTION	set	129
  2835  0000                     _OSCCON	set	143
  2836  0000                     _OSCTUNE	set	144
  2837  0000                     _PCL	set	2
  2838  0000                     _PCLATH	set	10
  2839  0000                     _PCON	set	142
  2840  0000                     _PIE1	set	140
  2841  0000                     _PIE2	set	141
  2842  0000                     _PIR1	set	12
  2843  0000                     _PIR2	set	13
  2844  0000                     _PORTA	set	5
  2845  0000                     _PORTB	set	6
  2846  0000                     _PORTC	set	7
  2847  0000                     _PORTD	set	8
  2848  0000                     _PORTE	set	9
  2849  0000                     _PR2	set	146
  2850  0000                     _RCREG	set	26
  2851  0000                     _RCSTA	set	24
  2852  0000                     _SPBRG	set	153
  2853  0000                     _SSPADD	set	147
  2854  0000                     _SSPBUF	set	19
  2855  0000                     _SSPCON	set	20
  2856  0000                     _SSPSTAT	set	148
  2857  0000                     _STATUS	set	3
  2858  0000                     _T1CON	set	16
  2859  0000                     _T2CON	set	18
  2860  0000                     _TMR0	set	1
  2861  0000                     _TMR1H	set	15
  2862  0000                     _TMR1L	set	14
  2863  0000                     _TMR2	set	17
  2864  0000                     _TRISA	set	133
  2865  0000                     _TRISB	set	134
  2866  0000                     _TRISC	set	135
  2867  0000                     _TRISD	set	136
  2868  0000                     _TRISE	set	137
  2869  0000                     _TXREG	set	25
  2870  0000                     _TXSTA	set	152
  2871  0000                     _VRCON	set	157
  2872  0000                     _WDTCON	set	261
  2873  0000                     _WPUB	set	149	;_hours
  2874                           
  2875                           	psect	rbit_0
  2876  0000                     _timeFlag	set	888	;byte address: 0x6F
  2877  0000                     _ADCON0	set	31
  2878  0000                     _ADCON1	set	159
  2879  0000                     _ADRESH	set	30
  2880  0000                     _ADRESL	set	158
  2881  0000                     _ANSEL	set	145
  2882  0000                     _CCP1CON	set	23
  2883  0000                     _CCP2CON	set	29
  2884  0000                     _CCPR1H	set	22
  2885  0000                     _CCPR1L	set	21
  2886  0000                     _CCPR2H	set	28
  2887  0000                     _CCPR2L	set	27
  2888  0000                     _CMCON0	set	156
  2889  0000                     _CMCON1	set	151
  2890  0000                     _EEADR	set	269
  2891  0000                     _EEADRH	set	271
  2892  0000                     _EEADRL	set	269
  2893  0000                     _EECON1	set	396
  2894  0000                     _EECON2	set	397
  2895  0000                     _EEDATA	set	268
  2896  0000                     _EEDATH	set	270
  2897  0000                     _EEDATL	set	268
  2898  0000                     _FSR	set	4
  2899  0000                     _INDF	set	0
  2900  0000                     _INTCON	set	11
  2901  0000                     _IOCB	set	150
  2902  0000                     _LCDCON	set	263
  2903  0000                     _LCDDATA0	set	272
  2904  0000                     _LCDDATA1	set	273
  2905  0000                     _LCDDATA10	set	282
  2906  0000                     _LCDDATA11	set	283
  2907  0000                     _LCDDATA2	set	274
  2908  0000                     _LCDDATA3	set	275
  2909  0000                     _LCDDATA4	set	276
  2910  0000                     _LCDDATA5	set	277
  2911  0000                     _LCDDATA6	set	278
  2912  0000                     _LCDDATA7	set	279
  2913  0000                     _LCDDATA8	set	280
  2914  0000                     _LCDDATA9	set	281
  2915  0000                     _LCDPS	set	264
  2916  0000                     _LCDSE0	set	284
  2917  0000                     _LCDSE1	set	285
  2918  0000                     _LCDSE2	set	286
  2919  0000                     _LVDCON	set	265	;_Mode
  2920                           
  2921                           	psect	common
  2922  0000                     _hours	set	125
  2923  0000                     _ADCS0	set	1276	;byte address: 0x9F
  2924  0000                     _ADCS1	set	1277	;byte address: 0x9F
  2925  0000                     _ADCS2	set	1278	;byte address: 0x9F
  2926  0000                     _ADDEN	set	195	;byte address: 0x18
  2927  0000                     _ADFM	set	255	;byte address: 0x1F
  2928  0000                     _ADIE	set	1126	;byte address: 0x8C
  2929  0000                     _ADIF	set	102	;byte address: 0xC
  2930  0000                     _ADON	set	248	;byte address: 0x1F
  2931  0000                     _ANS0	set	1160	;byte address: 0x91
  2932  0000                     _ANS1	set	1161	;byte address: 0x91
  2933  0000                     _ANS2	set	1162	;byte address: 0x91
  2934  0000                     _ANS3	set	1163	;byte address: 0x91
  2935  0000                     _ANS4	set	1164	;byte address: 0x91
  2936  0000                     _ANS5	set	1165	;byte address: 0x91
  2937  0000                     _ANS6	set	1166	;byte address: 0x91
  2938  0000                     _ANS7	set	1167	;byte address: 0x91
  2939  0000                     _BF	set	1184	;byte address: 0x94
  2940  0000                     _BIASMD	set	2118	;byte address: 0x108
  2941  0000                     _BOR	set	1136	;byte address: 0x8E
  2942  0000                     _BRGH	set	1218	;byte address: 0x98
  2943  0000                     _C1IE	set	1133	;byte address: 0x8D
  2944  0000                     _C1IF	set	109	;byte address: 0xD
  2945  0000                     _C1INV	set	1252	;byte address: 0x9C
  2946  0000                     _C1OUT	set	1254	;byte address: 0x9C
  2947  0000                     _C2IE	set	1134	;byte address: 0x8D
  2948  0000                     _C2IF	set	110	;byte address: 0xD
  2949  0000                     _C2INV	set	1253	;byte address: 0x9C
  2950  0000                     _C2OUT	set	1255	;byte address: 0x9C
  2951  0000                     _C2SYNC	set	1208	;byte address: 0x97
  2952  0000                     _CARRY	set	24	;byte address: 0x3
  2953  0000                     _CCP1IE	set	1122	;byte address: 0x8C
  2954  0000                     _CCP1IF	set	98	;byte address: 0xC
  2955  0000                     _CCP1M0	set	184	;byte address: 0x17
  2956  0000                     _CCP1M1	set	185	;byte address: 0x17
  2957  0000                     _CCP1M2	set	186	;byte address: 0x17
  2958  0000                     _CCP1M3	set	187	;byte address: 0x17
  2959  0000                     _CCP1X	set	189	;byte address: 0x17
  2960  0000                     _CCP1Y	set	188	;byte address: 0x17
  2961  0000                     _CCP2IE	set	1128	;byte address: 0x8D
  2962  0000                     _CCP2IF	set	104	;byte address: 0xD
  2963  0000                     _CCP2M0	set	232	;byte address: 0x1D
  2964  0000                     _CCP2M1	set	233	;byte address: 0x1D
  2965  0000                     _CCP2M2	set	234	;byte address: 0x1D
  2966  0000                     _CCP2M3	set	235	;byte address: 0x1D
  2967  0000                     _CCP2X	set	237	;byte address: 0x1D
  2968  0000                     _CCP2Y	set	236	;byte address: 0x1D
  2969  0000                     _CHS0	set	250	;byte address: 0x1F
  2970  0000                     _CHS1	set	251	;byte address: 0x1F
  2971  0000                     _CHS2	set	252	;byte address: 0x1F
  2972  0000                     _CIS	set	1251	;byte address: 0x9C
  2973  0000                     _CKE	set	1190	;byte address: 0x94
  2974  0000                     _CKP	set	164	;byte address: 0x14
  2975  0000                     _CM0	set	1248	;byte address: 0x9C
  2976  0000                     _CM1	set	1249	;byte address: 0x9C
  2977  0000                     _CM2	set	1250	;byte address: 0x9C
  2978  0000                     _CREN	set	196	;byte address: 0x18
  2979  0000                     _CS0	set	2106	;byte address: 0x107
  2980  0000                     _CS1	set	2107	;byte address: 0x107
  2981  0000                     _CSRC	set	1223	;byte address: 0x98
  2982  0000                     _DA	set	1189	;byte address: 0x94
  2983  0000                     _DC	set	25	;byte address: 0x3
  2984  0000                     _EEIE	set	1127	;byte address: 0x8C
  2985  0000                     _EEIF	set	103	;byte address: 0xC
  2986  0000                     _EEPGD	set	3175	;byte address: 0x18C
  2987  0000                     _FERR	set	194	;byte address: 0x18
  2988  0000                     _GIE	set	95	;byte address: 0xB
  2989  0000                     _GODONE	set	249	;byte address: 0x1F
  2990  0000                     _HTS	set	1146	;byte address: 0x8F
  2991  0000                     _INTE	set	92	;byte address: 0xB
  2992  0000                     _INTEDG	set	1038	;byte address: 0x81
  2993  0000                     _INTF	set	89	;byte address: 0xB
  2994  0000                     _IOCB4	set	1204	;byte address: 0x96
  2995  0000                     _IOCB5	set	1205	;byte address: 0x96
  2996  0000                     _IOCB6	set	1206	;byte address: 0x96
  2997  0000                     _IOCB7	set	1207	;byte address: 0x96
  2998  0000                     _IRCF0	set	1148	;byte address: 0x8F
  2999  0000                     _IRCF1	set	1149	;byte address: 0x8F
  3000  0000                     _IRCF2	set	1150	;byte address: 0x8F
  3001  0000                     _IRP	set	31	;byte address: 0x3
  3002  0000                     _IRVST	set	2125	;byte address: 0x109
  3003  0000                     _LCDA	set	2117	;byte address: 0x108
  3004  0000                     _LCDEN	set	2111	;byte address: 0x107
  3005  0000                     _LCDIE	set	1132	;byte address: 0x8D
  3006  0000                     _LCDIF	set	108	;byte address: 0xD
  3007  0000                     _LMUX0	set	2104	;byte address: 0x107
  3008  0000                     _LMUX1	set	2105	;byte address: 0x107
  3009  0000                     _LP0	set	2112	;byte address: 0x108
  3010  0000                     _LP1	set	2113	;byte address: 0x108
  3011  0000                     _LP2	set	2114	;byte address: 0x108
  3012  0000                     _LP3	set	2115	;byte address: 0x108
  3013  0000                     _LTS	set	1145	;byte address: 0x8F
  3014  0000                     _LVDEN	set	2124	;byte address: 0x109
  3015  0000                     _LVDIE	set	1130	;byte address: 0x8D
  3016  0000                     _LVDIF	set	106	;byte address: 0xD
  3017  0000                     _LVDL0	set	2120	;byte address: 0x109
  3018  0000                     _LVDL1	set	2121	;byte address: 0x109
  3019  0000                     _LVDL2	set	2122	;byte address: 0x109
  3020  0000                     _OERR	set	193	;byte address: 0x18
  3021  0000                     _OSFIE	set	1135	;byte address: 0x8D
  3022  0000                     _OSFIF	set	111	;byte address: 0xD
  3023  0000                     _OSTS	set	1147	;byte address: 0x8F
  3024  0000                     _PD	set	27	;byte address: 0x3
  3025  0000                     _PEIE	set	94	;byte address: 0xB
  3026  0000                     _POR	set	1137	;byte address: 0x8E
  3027  0000                     _PS0	set	1032	;byte address: 0x81
  3028  0000                     _PS1	set	1033	;byte address: 0x81
  3029  0000                     _PS2	set	1034	;byte address: 0x81
  3030  0000                     _PSA	set	1035	;byte address: 0x81
  3031  0000                     _RA0	set	40	;byte address: 0x5
  3032  0000                     _RA1	set	41	;byte address: 0x5
  3033  0000                     _RA2	set	42	;byte address: 0x5
  3034  0000                     _RA3	set	43	;byte address: 0x5
  3035  0000                     _RA4	set	44	;byte address: 0x5
  3036  0000                     _RA5	set	45	;byte address: 0x5
  3037  0000                     _RA6	set	46	;byte address: 0x5
  3038  0000                     _RA7	set	47	;byte address: 0x5
  3039  0000                     _RB0	set	48	;byte address: 0x6
  3040  0000                     _RB1	set	49	;byte address: 0x6
  3041  0000                     _RB2	set	50	;byte address: 0x6
  3042  0000                     _RB3	set	51	;byte address: 0x6
  3043  0000                     _RB4	set	52	;byte address: 0x6
  3044  0000                     _RB5	set	53	;byte address: 0x6
  3045  0000                     _RB6	set	54	;byte address: 0x6
  3046  0000                     _RB7	set	55	;byte address: 0x6
  3047  0000                     _RBIE	set	91	;byte address: 0xB
  3048  0000                     _RBIF	set	88	;byte address: 0xB
  3049  0000                     _RBPU	set	1039	;byte address: 0x81
  3050  0000                     _RC0	set	56	;byte address: 0x7
  3051  0000                     _RC1	set	57	;byte address: 0x7
  3052  0000                     _RC2	set	58	;byte address: 0x7
  3053  0000                     _RC3	set	59	;byte address: 0x7
  3054  0000                     _RC4	set	60	;byte address: 0x7
  3055  0000                     _RC5	set	61	;byte address: 0x7
  3056  0000                     _RC6	set	62	;byte address: 0x7
  3057  0000                     _RC7	set	63	;byte address: 0x7
  3058  0000                     _RCIE	set	1125	;byte address: 0x8C
  3059  0000                     _RCIF	set	101	;byte address: 0xC
  3060  0000                     _RD	set	3168	;byte address: 0x18C
  3061  0000                     _RD0	set	64	;byte address: 0x8
  3062  0000                     _RD1	set	65	;byte address: 0x8
  3063  0000                     _RD2	set	66	;byte address: 0x8
  3064  0000                     _RD3	set	67	;byte address: 0x8
  3065  0000                     _RD4	set	68	;byte address: 0x8
  3066  0000                     _RD5	set	69	;byte address: 0x8
  3067  0000                     _RD6	set	70	;byte address: 0x8
  3068  0000                     _RD7	set	71	;byte address: 0x8
  3069  0000                     _RE0	set	72	;byte address: 0x9
  3070  0000                     _RE1	set	73	;byte address: 0x9
  3071  0000                     _RE2	set	74	;byte address: 0x9
  3072  0000                     _RE3	set	75	;byte address: 0x9
  3073  0000                     _RP0	set	29	;byte address: 0x3
  3074  0000                     _RP1	set	30	;byte address: 0x3
  3075  0000                     _RW	set	1186	;byte address: 0x94
  3076  0000                     _RX9	set	198	;byte address: 0x18
  3077  0000                     _RX9D	set	192	;byte address: 0x18
  3078  0000                     _SBOREN	set	1140	;byte address: 0x8E
  3079  0000                     _SCS	set	1144	;byte address: 0x8F
  3080  0000                     _SE0	set	2272	;byte address: 0x11C
  3081  0000                     _SE1	set	2273	;byte address: 0x11C
  3082  0000                     _SE10	set	2282	;byte address: 0x11D
  3083  0000                     _SE11	set	2283	;byte address: 0x11D
  3084  0000                     _SE12	set	2284	;byte address: 0x11D
  3085  0000                     _SE13	set	2285	;byte address: 0x11D
  3086  0000                     _SE14	set	2286	;byte address: 0x11D
  3087  0000                     _SE15	set	2287	;byte address: 0x11D
  3088  0000                     _SE16	set	2288	;byte address: 0x11E
  3089  0000                     _SE17	set	2289	;byte address: 0x11E
  3090  0000                     _SE18	set	2290	;byte address: 0x11E
  3091  0000                     _SE19	set	2291	;byte address: 0x11E
  3092  0000                     _SE2	set	2274	;byte address: 0x11C
  3093  0000                     _SE20	set	2292	;byte address: 0x11E
  3094  0000                     _SE21	set	2293	;byte address: 0x11E
  3095  0000                     _SE22	set	2294	;byte address: 0x11E
  3096  0000                     _SE23	set	2295	;byte address: 0x11E
  3097  0000                     _SE3	set	2275	;byte address: 0x11C
  3098  0000                     _SE4	set	2276	;byte address: 0x11C
  3099  0000                     _SE5	set	2277	;byte address: 0x11C
  3100  0000                     _SE6	set	2278	;byte address: 0x11C
  3101  0000                     _SE7	set	2279	;byte address: 0x11C
  3102  0000                     _SE8	set	2280	;byte address: 0x11D
  3103  0000                     _SE9	set	2281	;byte address: 0x11D
  3104  0000                     _SEG0COM0	set	2176	;byte address: 0x110
  3105  0000                     _SEG0COM1	set	2200	;byte address: 0x113
  3106  0000                     _SEG0COM2	set	2224	;byte address: 0x116
  3107  0000                     _SEG0COM3	set	2248	;byte address: 0x119
  3108  0000                     _SEG10COM0	set	2186	;byte address: 0x111
  3109  0000                     _SEG10COM1	set	2210	;byte address: 0x114
  3110  0000                     _SEG10COM2	set	2234	;byte address: 0x117
  3111  0000                     _SEG10COM3	set	2258	;byte address: 0x11A
  3112  0000                     _SEG11COM0	set	2187	;byte address: 0x111
  3113  0000                     _SEG11COM1	set	2211	;byte address: 0x114
  3114  0000                     _SEG11COM2	set	2235	;byte address: 0x117
  3115  0000                     _SEG11COM3	set	2259	;byte address: 0x11A
  3116  0000                     _SEG12COM0	set	2188	;byte address: 0x111
  3117  0000                     _SEG12COM1	set	2212	;byte address: 0x114
  3118  0000                     _SEG12COM2	set	2236	;byte address: 0x117
  3119  0000                     _SEG12COM3	set	2260	;byte address: 0x11A
  3120  0000                     _SEG13COM0	set	2189	;byte address: 0x111
  3121  0000                     _SEG13COM1	set	2213	;byte address: 0x114
  3122  0000                     _SEG13COM2	set	2237	;byte address: 0x117
  3123  0000                     _SEG13COM3	set	2261	;byte address: 0x11A
  3124  0000                     _SEG14COM0	set	2190	;byte address: 0x111
  3125  0000                     _SEG14COM1	set	2214	;byte address: 0x114
  3126  0000                     _SEG14COM2	set	2238	;byte address: 0x117
  3127  0000                     _SEG14COM3	set	2262	;byte address: 0x11A
  3128  0000                     _SEG15COM0	set	2191	;byte address: 0x111
  3129  0000                     _SEG15COM1	set	2215	;byte address: 0x114
  3130  0000                     _SEG15COM2	set	2239	;byte address: 0x117
  3131  0000                     _SEG15COM3	set	2263	;byte address: 0x11A
  3132  0000                     _SEG16COM0	set	2192	;byte address: 0x112
  3133  0000                     _SEG16COM1	set	2216	;byte address: 0x115
  3134  0000                     _SEG16COM2	set	2240	;byte address: 0x118
  3135  0000                     _SEG16COM3	set	2264	;byte address: 0x11B
  3136  0000                     _SEG17COM0	set	2193	;byte address: 0x112
  3137  0000                     _SEG17COM1	set	2217	;byte address: 0x115
  3138  0000                     _SEG17COM2	set	2241	;byte address: 0x118
  3139  0000                     _SEG17COM3	set	2265	;byte address: 0x11B
  3140  0000                     _SEG18COM0	set	2194	;byte address: 0x112
  3141  0000                     _SEG18COM1	set	2218	;byte address: 0x115
  3142  0000                     _SEG18COM2	set	2242	;byte address: 0x118
  3143  0000                     _SEG18COM3	set	2266	;byte address: 0x11B
  3144  0000                     _SEG19COM0	set	2195	;byte address: 0x112
  3145  0000                     _SEG19COM1	set	2219	;byte address: 0x115
  3146  0000                     _SEG19COM2	set	2243	;byte address: 0x118
  3147  0000                     _SEG19COM3	set	2267	;byte address: 0x11B
  3148  0000                     _SEG1COM0	set	2177	;byte address: 0x110
  3149  0000                     _SEG1COM1	set	2201	;byte address: 0x113
  3150  0000                     _SEG1COM2	set	2225	;byte address: 0x116
  3151  0000                     _SEG1COM3	set	2249	;byte address: 0x119
  3152  0000                     _SEG20COM0	set	2196	;byte address: 0x112
  3153  0000                     _SEG20COM1	set	2220	;byte address: 0x115
  3154  0000                     _SEG20COM2	set	2244	;byte address: 0x118
  3155  0000                     _SEG20COM3	set	2268	;byte address: 0x11B
  3156  0000                     _SEG21COM0	set	2197	;byte address: 0x112
  3157  0000                     _SEG21COM1	set	2221	;byte address: 0x115
  3158  0000                     _SEG21COM2	set	2245	;byte address: 0x118
  3159  0000                     _SEG21COM3	set	2269	;byte address: 0x11B
  3160  0000                     _SEG22COM0	set	2198	;byte address: 0x112
  3161  0000                     _SEG22COM1	set	2222	;byte address: 0x115
  3162  0000                     _SEG22COM2	set	2246	;byte address: 0x118
  3163  0000                     _SEG22COM3	set	2270	;byte address: 0x11B
  3164  0000                     _SEG23COM0	set	2199	;byte address: 0x112
  3165  0000                     _SEG23COM1	set	2223	;byte address: 0x115
  3166  0000                     _SEG23COM2	set	2247	;byte address: 0x118
  3167  0000                     _SEG23COM3	set	2271	;byte address: 0x11B
  3168  0000                     _SEG2COM0	set	2178	;byte address: 0x110
  3169  0000                     _SEG2COM1	set	2202	;byte address: 0x113
  3170  0000                     _SEG2COM2	set	2226	;byte address: 0x116
  3171  0000                     _SEG2COM3	set	2250	;byte address: 0x119
  3172  0000                     _SEG3COM0	set	2179	;byte address: 0x110
  3173  0000                     _SEG3COM1	set	2203	;byte address: 0x113
  3174  0000                     _SEG3COM2	set	2227	;byte address: 0x116
  3175  0000                     _SEG3COM3	set	2251	;byte address: 0x119
  3176  0000                     _SEG4COM0	set	2180	;byte address: 0x110
  3177  0000                     _SEG4COM1	set	2204	;byte address: 0x113
  3178  0000                     _SEG4COM2	set	2228	;byte address: 0x116
  3179  0000                     _SEG4COM3	set	2252	;byte address: 0x119
  3180  0000                     _SEG5COM0	set	2181	;byte address: 0x110
  3181  0000                     _SEG5COM1	set	2205	;byte address: 0x113
  3182  0000                     _SEG5COM2	set	2229	;byte address: 0x116
  3183  0000                     _SEG5COM3	set	2253	;byte address: 0x119
  3184  0000                     _SEG6COM0	set	2182	;byte address: 0x110
  3185  0000                     _SEG6COM1	set	2206	;byte address: 0x113
  3186  0000                     _SEG6COM2	set	2230	;byte address: 0x116
  3187  0000                     _SEG6COM3	set	2254	;byte address: 0x119
  3188  0000                     _SEG7COM0	set	2183	;byte address: 0x110
  3189  0000                     _SEG7COM1	set	2207	;byte address: 0x113
  3190  0000                     _SEG7COM2	set	2231	;byte address: 0x116
  3191  0000                     _SEG7COM3	set	2255	;byte address: 0x119
  3192  0000                     _SEG8COM0	set	2184	;byte address: 0x111
  3193  0000                     _SEG8COM1	set	2208	;byte address: 0x114
  3194  0000                     _SEG8COM2	set	2232	;byte address: 0x117
  3195  0000                     _SEG8COM3	set	2256	;byte address: 0x11A
  3196  0000                     _SEG9COM0	set	2185	;byte address: 0x111
  3197  0000                     _SEG9COM1	set	2209	;byte address: 0x114
  3198  0000                     _SEG9COM2	set	2233	;byte address: 0x117
  3199  0000                     _SEG9COM3	set	2257	;byte address: 0x11A
  3200  0000                     _SLPEN	set	2110	;byte address: 0x107
  3201  0000                     _SMP	set	1191	;byte address: 0x94
  3202  0000                     _SPEN	set	199	;byte address: 0x18
  3203  0000                     _SREN	set	197	;byte address: 0x18
  3204  0000                     _SSPEN	set	165	;byte address: 0x14
  3205  0000                     _SSPIE	set	1123	;byte address: 0x8C
  3206  0000                     _SSPIF	set	99	;byte address: 0xC
  3207  0000                     _SSPM0	set	160	;byte address: 0x14
  3208  0000                     _SSPM1	set	161	;byte address: 0x14
  3209  0000                     _SSPM2	set	162	;byte address: 0x14
  3210  0000                     _SSPM3	set	163	;byte address: 0x14
  3211  0000                     _SSPOV	set	166	;byte address: 0x14
  3212  0000                     _START	set	1187	;byte address: 0x94
  3213  0000                     _STOP	set	1188	;byte address: 0x94
  3214  0000                     _SWDTEN	set	2088	;byte address: 0x105
  3215  0000                     _SYNC	set	1220	;byte address: 0x98
  3216  0000                     _T0CS	set	1037	;byte address: 0x81
  3217  0000                     _T0IE	set	93	;byte address: 0xB
  3218  0000                     _T0IF	set	90	;byte address: 0xB
  3219  0000                     _T0SE	set	1036	;byte address: 0x81
  3220  0000                     _T1CKPS0	set	132	;byte address: 0x10
  3221  0000                     _T1CKPS1	set	133	;byte address: 0x10
  3222  0000                     _T1GE	set	134	;byte address: 0x10
  3223  0000                     _T1GINV	set	135	;byte address: 0x10
  3224  0000                     _T1GSS	set	1209	;byte address: 0x97
  3225  0000                     _T1OSCEN	set	131	;byte address: 0x10
  3226  0000                     _T1SYNC	set	130	;byte address: 0x10
  3227  0000                     _T2CKPS0	set	144	;byte address: 0x12
  3228  0000                     _T2CKPS1	set	145	;byte address: 0x12
  3229  0000                     _TMR1CS	set	129	;byte address: 0x10
  3230  0000                     _TMR1IE	set	1120	;byte address: 0x8C
  3231  0000                     _TMR1IF	set	96	;byte address: 0xC
  3232  0000                     _TMR1ON	set	128	;byte address: 0x10
  3233  0000                     _TMR2IE	set	1121	;byte address: 0x8C
  3234  0000                     _TMR2IF	set	97	;byte address: 0xC
  3235  0000                     _TMR2ON	set	146	;byte address: 0x12
  3236  0000                     _TO	set	28	;byte address: 0x3
  3237  0000                     _TOUTPS0	set	147	;byte address: 0x12
  3238  0000                     _TOUTPS1	set	148	;byte address: 0x12
  3239  0000                     _TOUTPS2	set	149	;byte address: 0x12
  3240  0000                     _TOUTPS3	set	150	;byte address: 0x12
  3241  0000                     _TRISA0	set	1064	;byte address: 0x85
  3242  0000                     _TRISA1	set	1065	;byte address: 0x85
  3243  0000                     _TRISA2	set	1066	;byte address: 0x85
  3244  0000                     _TRISA3	set	1067	;byte address: 0x85
  3245  0000                     _TRISA4	set	1068	;byte address: 0x85
  3246  0000                     _TRISA5	set	1069	;byte address: 0x85
  3247  0000                     _TRISA6	set	1070	;byte address: 0x85
  3248  0000                     _TRISA7	set	1071	;byte address: 0x85
  3249  0000                     _TRISB0	set	1072	;byte address: 0x86
  3250  0000                     _TRISB1	set	1073	;byte address: 0x86
  3251  0000                     _TRISB2	set	1074	;byte address: 0x86
  3252  0000                     _TRISB3	set	1075	;byte address: 0x86
  3253  0000                     _TRISB4	set	1076	;byte address: 0x86
  3254  0000                     _TRISB5	set	1077	;byte address: 0x86
  3255  0000                     _TRISB6	set	1078	;byte address: 0x86
  3256  0000                     _TRISB7	set	1079	;byte address: 0x86
  3257  0000                     _TRISC0	set	1080	;byte address: 0x87
  3258  0000                     _TRISC1	set	1081	;byte address: 0x87
  3259  0000                     _TRISC2	set	1082	;byte address: 0x87
  3260  0000                     _TRISC3	set	1083	;byte address: 0x87
  3261  0000                     _TRISC4	set	1084	;byte address: 0x87
  3262  0000                     _TRISC5	set	1085	;byte address: 0x87
  3263  0000                     _TRISC6	set	1086	;byte address: 0x87
  3264  0000                     _TRISC7	set	1087	;byte address: 0x87
  3265  0000                     _TRISD0	set	1088	;byte address: 0x88
  3266  0000                     _TRISD1	set	1089	;byte address: 0x88
  3267  0000                     _TRISD2	set	1090	;byte address: 0x88
  3268  0000                     _TRISD3	set	1091	;byte address: 0x88
  3269  0000                     _TRISD4	set	1092	;byte address: 0x88
  3270  0000                     _TRISD5	set	1093	;byte address: 0x88
  3271  0000                     _TRISD6	set	1094	;byte address: 0x88
  3272  0000                     _TRISD7	set	1095	;byte address: 0x88
  3273  0000                     _TRISE0	set	1096	;byte address: 0x89
  3274  0000                     _TRISE1	set	1097	;byte address: 0x89
  3275  0000                     _TRISE2	set	1098	;byte address: 0x89
  3276  0000                     _TRISE3	set	1099	;byte address: 0x89
  3277  0000                     _TRMT	set	1217	;byte address: 0x98
  3278  0000                     _TUN0	set	1152	;byte address: 0x90
  3279  0000                     _TUN1	set	1153	;byte address: 0x90
  3280  0000                     _TUN2	set	1154	;byte address: 0x90
  3281  0000                     _TUN3	set	1155	;byte address: 0x90
  3282  0000                     _TUN4	set	1156	;byte address: 0x90
  3283  0000                     _TX9	set	1222	;byte address: 0x98
  3284  0000                     _TX9D	set	1216	;byte address: 0x98
  3285  0000                     _TXEN	set	1221	;byte address: 0x98
  3286  0000                     _TXIE	set	1124	;byte address: 0x8C
  3287  0000                     _TXIF	set	100	;byte address: 0xC
  3288  0000                     _UA	set	1185	;byte address: 0x94
  3289  0000                     _VCFG0	set	253	;byte address: 0x1F
  3290  0000                     _VCFG1	set	254	;byte address: 0x1F
  3291  0000                     _VLCDEN	set	2108	;byte address: 0x107
  3292  0000                     _VR0	set	1256	;byte address: 0x9D
  3293  0000                     _VR1	set	1257	;byte address: 0x9D
  3294  0000                     _VR2	set	1258	;byte address: 0x9D
  3295  0000                     _VR3	set	1259	;byte address: 0x9D
  3296  0000                     _VREN	set	1263	;byte address: 0x9D
  3297  0000                     _VRR	set	1261	;byte address: 0x9D
  3298  0000                     _WA	set	2116	;byte address: 0x108
  3299  0000                     _WCOL	set	167	;byte address: 0x14
  3300  0000                     _WDTPS0	set	2089	;byte address: 0x105
  3301  0000                     _WDTPS1	set	2090	;byte address: 0x105
  3302  0000                     _WDTPS2	set	2091	;byte address: 0x105
  3303  0000                     _WDTPS3	set	2092	;byte address: 0x105
  3304  0000                     _WERR	set	2109	;byte address: 0x107
  3305  0000                     _WFT	set	2119	;byte address: 0x108
  3306  0000                     _WR	set	3169	;byte address: 0x18C
  3307  0000                     _WREN	set	3170	;byte address: 0x18C
  3308  0000                     _WRERR	set	3171	;byte address: 0x18C
  3309  0000                     _ZERO	set	26	;btemp
  3310                           
  3311                           	psect	fnautoc
  3312  0000                     btemp	set	126
  3313  0070                     


HI-TECH Software PICC Macro Assembler V9.60PL5 build 3884 
Symbol Table                                          Thu Apr 16 14:50:35 2009

       ?_displayVoltage 0070                __Lrbss_0 0065  
             __Lrdata_0 0000               __Lramdata 0000  
      ??_displayVoltage 0070                      l20 02CA  
                    _DA 04A5                      _BF 04A0  
                    l30 02F2                      l22 02E0  
                    l14 02A5                      _DC 0019  
                    l23 02CE                      l40 003D  
                    l41 0043                      l25 02DB  
                    l17 02B3                      l50 00D4  
                    l42 0048                      l34 0223  
                    l18 02BA                      l51 0099  
                    l43 004E                      l35 002A  
                    l27 02F7                      l60 00CD  
                    l52 009C                      l44 0055  
                    l28 02E5                      l61 00F4  
                    l53 00A2                      l45 0059  
                    l37 006F                      l70 011F  
                    l54 00A8                      l46 0061  
                    l38 0034                      l71 0123  
                    l63 0139                      l55 00AD  
                    l47 0068                      l39 0037  
                    l80 0172                      l72 012B  
                    l64 00FE                      l56 00B3  
                    l48 008F                      l81 0177  
                    l73 0132                      l65 0101  
                    l57 00BA                      l90 01C8  
                    l82 017D                      l74 0159  
                    l66 0107                      l58 00BE  
                    l91 01CB                      l83 0184  
                    l67 010D                      l59 00C6  
                    l92 01D1                      l84 0188  
                    l76 019E                      l68 0112  
                    l93 01D7                      l85 0190  
                    l77 0163                      l69 0118  
                    l94 01DC                      l86 0197  
                    l78 0166                      l95 01E2  
                    l87 01BE                      l79 016C  
                    l96 01E9                      l97 01ED  
                    l89 0203                      l98 01F5  
                    l99 01FC                      _PD 001B  
                    _RD 0C60                      _UA 04A1  
                    _WA 0844                      _TO 001C  
                    _RW 04A2                      _WR 0C61  
 __end_of_displayNumber 0234                     l101 023B  
                   l102 0238                     l110 03FF  
                   l111 0415                     l120 04DB  
                   l112 042B                     l121 04F1  
                   l113 0441                     l122 0507  
                   l114 0457                     l106 058B  
                   l123 051D                     l115 046D  
                   l107 03BD                     l124 0533  
                   l116 0483                     l108 03D3  
                   l132 0623                     l125 0549  
                   l117 0499                     l109 03E9  
                   l141 05F8                     l126 055F  
                   l118 04AF                     l127 0575  
                   l119 04C5                     l137 05E9  
                   l129 024A                     l154 05CE  
                   l155 05D6                     l163 030A  
                   l157 0321                     _CM0 04E0  
                   _CM1 04E1                     _CM2 04E2  
                   _CS0 083A                     _CS1 083B  
                   _CKE 04A6                     _CIS 04E3  
                   _CKP 00A4                     _GIE 005F  
                   _BOR 0470                     _RA0 0028  
                   _RA1 0029                     _RB0 0030  
                   _RA2 002A                     _RB1 0031  
                   _RA3 002B                     _RC0 0038  
                   _RB2 0032                     _RA4 002C  
                   _RC1 0039                     _RB3 0033  
                   _RA5 002D                     _RD0 0040  
                   _RC2 003A                     _RB4 0034  
                   _RA6 002E                     _LP0 0840  
                   _RD1 0041                     _RC3 003B  
                   _RB5 0035                     _RA7 002F  
                   _LP1 0841                     _RE0 0048  
                   _RD2 0042                     _RC4 003C  
                   _RB6 0036                     _LP2 0842  
                   _RE1 0049                     _RD3 0043  
                   _RC5 003D                     _RB7 0037  
                   _LP3 0843                     _RE2 004A  
                   _RD4 0044                     _RC6 003E  
                   _RE3 004B                     _RD5 0045  
                   _RC7 003F                     _SE0 08E0  
                   _RD6 0046                     _SE1 08E1  
                   _RD7 0047                     _SE2 08E2  
                   _SE3 08E3                     _SE4 08E4  
                   _SE5 08E5                     _SE6 08E6  
                   _SE7 08E7                     _SE8 08E8  
                   _SE9 08E9                     _FSR 0004  
                   _PCL 0002                     _PS0 0408  
                   _PR2 0092                     _PS1 0409  
                   _RP0 001D                     _PS2 040A  
                   _IRP 001F                     _RP1 001E  
                   _HTS 047A                     _ISR 065B  
                   i1l1 0689                     i1l2 067A  
                   i1l7 0684                     i1l8 0688  
                   _SCS 0478                     _PSA 040B  
                   _LTS 0479                     _SW1 0065  
                   _VR0 04E8                     _SW2 0066  
                   _VR1 04E9                     _VR2 04EA  
                   _VR3 04EB                     _POR 0471  
                   _RX9 00C6                     _SMP 04A7  
                   _TX9 04C6                     _WFT 0847  
                   _VRR 04ED       _displayBars_value 0070  
      ___lwdiv_dividend 0073                 ??_delay 0070  
                  ?_ISR 007A  __end_of_displayVoltage 065B  
                  _C1IE 046D                    _C1IF 006D  
                  _C2IE 046E                    _C2IF 006E  
                  _ADIE 0466                    _ADIF 0066  
                  _ADFM 00FF                __tempreg 0070  
                  _ADON 00F8                    _CHS0 00FA  
                  _CHS1 00FB                    _CHS2 00FC  
                  _EEIE 0467                    _EEIF 0067  
                  _ANS0 0488                    _ANS1 0489  
                  _ANS2 048A                    _ANS3 048B  
                  _ANS4 048C                    _ANS5 048D  
                  _ANS6 048E                    _ANS7 048F  
                  _BRGH 04C2                    _LCDA 0845  
                  _T1GE 0086                    _T0IE 005D  
                  _T0IF 005A                    _CREN 00C4  
                  _T0CS 040D                    _FERR 00C2  
                  _SE10 08EA                    _SE11 08EB  
                  _SE20 08F4                    _SE12 08EC  
                  _SE21 08F5                    _SE13 08ED  
                  _SE22 08F6                    _SE14 08EE  
                  _SE23 08F7                    _SE15 08EF  
                  _SE16 08F0                    _SE17 08F1  
                  _SE18 08F2                    _SE19 08F3  
                  _T0SE 040C                    _CSRC 04C7  
                  _IOCB 0096                    _INDF 0000  
                  _PIE1 008C                    _PIE2 008D  
                  u1755 0313                    _PEIE 005E  
                  _INTE 005C                    _INTF 0059  
                  _RBIE 005B                    _RBIF 0058  
                  _RCIE 0465                    _RCIF 0065  
                  _PCON 008E                    _PIR1 000C  
                  _PIR2 000D                    _OERR 00C1  
                  _RBPU 040F                    _RX9D 00C0  
                  _TMR0 0001                    _TMR2 0011  
                  _WCOL 00A7                    _SPEN 00C7  
             __databank 0000                    _TX9D 04C0  
                  _SREN 00C5                    _OSTS 047B  
                  _TUN0 0480                    _TUN1 0481  
                  _WERR 083D                    _TUN2 0482  
                  _TUN3 0483                    _TUN4 0484  
                  _VREN 04EF                    _TRMT 04C1  
                  _STOP 04A4                    _ZERO 001A  
                  _TXIE 0464                    _WREN 0C62  
                  _TXIF 0064                    _TXEN 04C5  
                  _SYNC 04C4                    _WPUB 0095  
                  _Mode 0020                    _main 02A4  
                  _init 0262                    _ones 006E  
                  _tens 006C                    btemp 007E  
                  start 000C      _display4dig_number 0070  
           _clearscreen 001A       interrupt_function 0004  
   __end_of_clearscreen 0028                _timeFlag 0378  
           _numberBreak 0234                   ??_ISR 007A  
               ?___wmul 0073                ??___wmul 0077  
   __end_of_numberBreak 0242         __end_of___lwdiv 0326  
      ___lwdiv_quotient 0078                 _CCP1CON 0017  
               _CCP2CON 001D               _boardTemp 0067  
    _numberBreak_number 0070        _display4dig_temp 0072  
                 _C1INV 04E4                   _C2INV 04E5  
                 _C1OUT 04E6                   _C2OUT 04E7  
                 _ADCS0 04FC                   _ADCS1 04FD  
                 _ADCS2 04FE                   _ADDEN 00C3  
                 ?_main 0070                   ?_init 0070  
                 _CCP1X 00BD                   _CCP1Y 00BC  
                 _CCP2X 00ED                   _CCP2Y 00EC  
                 _EEADR 010D           __end_of_delay 05F3  
                 _CARRY 0018                   _EEPGD 0C67  
                 _ANSEL 0091                   _LCDIE 046C  
                 _LCDIF 006C                   _LCDEN 083F  
                 _T1CON 0010                   _T2CON 0012  
                 _IOCB4 04B4                   _IOCB5 04B5  
                 _IOCB6 04B6                   _IOCB7 04B7  
                 _LCDPS 0108                   _T1GSS 04B9  
               _T1CKPS0 0084                 _T1CKPS1 0085  
             _LCDDATA10 011A               _LCDDATA11 011B  
                 _IRCF0 047C                   _IRCF1 047D  
                 _IRCF2 047E                 _T2CKPS0 0090  
               _T2CKPS1 0091                   _LVDL0 0848  
                 _LVDL1 0849                   _LVDL2 084A  
                 _VCFG0 00FD                   _VCFG1 00FE  
                 _RCREG 001A                   _LVDIE 046A  
                 _LVDIF 006A                   _LVDEN 084C  
                 _LMUX0 0838                   _LMUX1 0839  
                 _RCSTA 0018                   _IRVST 084D  
                 _OSFIE 046F                   _OSFIF 006F  
                 _TMR1H 000F                   _TMR1L 000E  
                 _SPBRG 0099                   _SLPEN 083E  
                 _PORTA 0005                   _PORTB 0006  
               _T1OSCEN 0083                   _PORTC 0007  
                 _PORTD 0008                   _PORTE 0009  
                 _START 04A3                   _SSPM0 00A0  
                 _SSPM1 00A1                   _SSPM2 00A2  
                 _SSPM3 00A3                   _TRISA 0085  
                 _TRISB 0086                   _TRISC 0087  
                 _TRISD 0088                   _SSPIE 0463  
                 _TRISE 0089                   _SSPIF 0063  
                 _SSPEN 00A5                   _VRCON 009D  
                 _SSPOV 00A6                   _WRERR 0C63  
                 _TXREG 0019                   _TXSTA 0098  
          ?_clearscreen 0070                 _OSCTUNE 0090  
                 _delay 05E5            ?_numberBreak 0070  
                 _hours 007D                 _SSPSTAT 0094  
               _TOUTPS0 0093                 _TOUTPS1 0094  
               _TOUTPS2 0095                 _TOUTPS3 0096  
             _SEG10COM0 088A               _SEG10COM1 08A2  
             _SEG10COM2 08BA               _SEG10COM3 08D2  
             _SEG11COM0 088B               _SEG11COM1 08A3  
             _SEG11COM2 08BB               _SEG11COM3 08D3  
             _SEG20COM0 0894               _SEG12COM0 088C  
             _SEG20COM1 08AC               _SEG12COM1 08A4  
             _SEG20COM2 08C4               _SEG12COM2 08BC  
             _SEG20COM3 08DC               _SEG12COM3 08D4  
             _SEG21COM0 0895               _SEG13COM0 088D  
             _SEG21COM1 08AD               _SEG13COM1 08A5  
             _SEG21COM2 08C5               _SEG13COM2 08BD  
             _SEG21COM3 08DD               _SEG13COM3 08D5  
             _SEG22COM0 0896               _SEG14COM0 088E  
             _SEG22COM1 08AE               _SEG14COM1 08A6  
             _SEG22COM2 08C6               _SEG14COM2 08BE  
             _SEG22COM3 08DE               _SEG14COM3 08D6  
             _SEG23COM0 0897               _SEG15COM0 088F  
             _SEG23COM1 08AF               _SEG15COM1 08A7  
             _SEG23COM2 08C7               _SEG15COM2 08BF  
             _SEG23COM3 08DF               _SEG15COM3 08D7  
             _SEG16COM0 0890               _SEG16COM1 08A8  
             _SEG16COM2 08C0               _SEG16COM3 08D8  
                 pclath 000A               _SEG17COM0 0891  
             _SEG17COM1 08A9               _SEG17COM2 08C1  
             _SEG17COM3 08D9               _SEG18COM0 0892  
             _SEG18COM1 08AA               _SEG18COM2 08C2  
             _SEG18COM3 08DA               _SEG19COM0 0893  
             _SEG19COM1 08AB               _SEG19COM2 08C3  
             _SEG19COM3 08DB                intlevel1 0004  
    _displayTemp_number 0070                   status 0003  
     ___wmul_multiplier 0073  _displayNumber_Position 0074  
          _boardVoltage 0069             _display4dig 0326  
           _displayBars 03BB          ?_displayNumber 0073  
           _displayTemp 037C             _displayTime 0242  
   __end_of_display4dig 037C     __end_of_displayBars 05CC  
       ??_displayNumber 0074     __end_of_displayTemp 03BB  
   __end_of_displayTime 0262                 ___lwdiv 02FC  
              ?___lwdiv 0073          ___wmul_product 0077  
             ??___lwdiv 0077                 _delay_i 0070  
                ??_main 0070                  ??_init 0070  
       ___lwdiv_divisor 0075         ___lwdiv_counter 0077  
          ?_display4dig 0070            ?_displayBars 0070  
         ??_clearscreen 0070            ?_displayTemp 0070  
          ?_displayTime 0070                 _minutes 006D  
               _seconds 006B                  ?_delay 0070  
                _C2SYNC 04B8                  _ADCON0 001F  
                _ADCON1 009F                  _CCP1M0 00B8  
                _CCP1M1 00B9                  _CCP1M2 00BA  
                _CCP1M3 00BB                  _CCP2M0 00E8  
                _CCP2M1 00E9                  _CCP2M2 00EA  
                _CCP2M3 00EB                  _CCP1IE 0462  
                _CCP1IF 0062                  _CCP2IE 0468  
                _CCP2IF 0068          __end_of___wmul 05E5  
         ??_numberBreak 0070                  _ADRESH 001E  
                _EEADRH 010F                  _ADRESL 009E  
                _EEADRL 010D                  _EEDATA 010C  
                _BIASMD 0846                  _CCPR1H 0016  
                _EEDATH 010E                  _CCPR2H 001C  
                _CCPR1L 0015                  _EEDATL 010C  
                _CCPR2L 001B                  _EECON1 018C  
                _EECON2 018D                  _CMCON0 009C  
                _CMCON1 0097            __end_of_main 02FC  
          __end_of_init 02A4                _LCDDATA0 0110  
                _LCDCON 0107                _LCDDATA1 0111  
              _LCDDATA2 0112                _LCDDATA3 0113  
              _LCDDATA4 0114                _LCDDATA5 0115  
              _LCDDATA6 0116                _LCDDATA7 0117  
              _LCDDATA8 0118                _LCDDATA9 0119  
                _LCDSE0 011C                  _LCDSE1 011D  
                _LCDSE2 011E                  _T1GINV 0087  
                _GODONE 00F9                  _T1SYNC 0082  
                _INTEDG 040E                  _PCLATH 000A  
                _INTCON 000B                  _LVDCON 0109  
                _SBOREN 0474                  _OSCCON 008F  
                _TMR1IE 0460                  _TMR1IF 0060  
                _TMR1CS 0081                  _TMR2IE 0461  
                _VLCDEN 083C                  _TMR2IF 0061  
                _TMR1ON 0080                  _OPTION 0081  
                _TMR2ON 0092                  _WDTCON 0105  
                _WDTPS0 0829                  _WDTPS1 082A  
                _WDTPS2 082B                  _WDTPS3 082C  
                _SSPADD 0093                  _TRISA0 0428  
                _TRISA1 0429                  _TRISB0 0430  
                _TRISA2 042A                  _TRISB1 0431  
                _TRISA3 042B                  _TRISC0 0438  
                _TRISB2 0432                  _TRISA4 042C  
                _TRISC1 0439                  _TRISB3 0433  
                _TRISA5 042D                  _TRISD0 0440  
                _TRISC2 043A                  _TRISB4 0434  
                _TRISA6 042E                  _TRISD1 0441  
                _TRISC3 043B                  _TRISB5 0435  
                _TRISA7 042F                  _TRISE0 0448  
                _TRISD2 0442                  _TRISC4 043C  
                _TRISB6 0436                  _TRISE1 0449  
                _TRISD3 0443                  _TRISC5 043D  
                _TRISB7 0437                  _TRISE2 044A  
                _TRISD4 0444                  _TRISC6 043E  
                _TRISE3 044B                  _TRISD5 0445  
                _TRISC7 043F                  _TRISD6 0446  
                _TRISD7 0447                  _STATUS 0003  
                _SSPCON 0014                  _SSPBUF 0013  
                _SWDTEN 0828                _SEG0COM0 0880  
              _SEG0COM1 0898                _SEG0COM2 08B0  
              _SEG0COM3 08C8                _SEG1COM0 0881  
              _SEG1COM1 0899                _SEG1COM2 08B1  
              _SEG1COM3 08C9                _SEG2COM0 0882  
              _SEG2COM1 089A                _SEG2COM2 08B2  
              _SEG2COM3 08CA                _SEG3COM0 0883  
              _SEG3COM1 089B                _SEG3COM2 08B3  
              _SEG3COM3 08CB                _SEG4COM0 0884  
              _SEG4COM1 089C                _SEG4COM2 08B4  
              _SEG4COM3 08CC                _SEG5COM0 0885  
              _SEG5COM1 089D                _SEG5COM2 08B5  
              _SEG5COM3 08CD                _SEG6COM0 0886  
              _SEG6COM1 089E                _SEG6COM2 08B6  
              _SEG6COM3 08CE                _SEG7COM0 0887  
              _SEG7COM1 089F                _SEG7COM2 08B7  
              _SEG7COM3 08CF                _SEG8COM0 0888  
              _SEG8COM1 08A0                _SEG8COM2 08B8  
              _SEG8COM3 08D0                _SEG9COM0 0889  
              _SEG9COM1 08A1                _SEG9COM2 08B9  
              _SEG9COM3 08D1                  ___wmul 05CC  
        _getTemperature 05F3         ?_getTemperature 0070  
   ___wmul_multiplicand 0075             __end_of_ISR 0690  
      ??_getTemperature 0070           ??_display4dig 0072  
  _displayNumber_Number 0073        _displayTemp_temp 0072  
         ??_displayBars 0070                  saved_w 007F  
         ??_displayTemp 0072           ??_displayTime 0070  
__end_of_getTemperature 061F           _displayNumber 0028  
             __Hrdata_0 0001          _displayVoltage 061F  
             __Hramdata 0001                __Hrbss_0 0070  
